(dp1
S'files'
p2
(dp3
S'_home_moza_venvs_moza_django_lib_python2_7_site-packages_django_contrib_auth_models'
p4
(dp5
S'index'
p6
(dp7
S'html_filename'
p8
S'_home_moza_venvs_moza_django_lib_python2_7_site-packages_django_contrib_auth_models.html'
p9
sS'name'
p10
S'/home/moza/venvs/moza_django/lib/python2.7/site-packages/django/contrib/auth/models'
p11
sS'nums'
p12
ccopy_reg
_reconstructor
p13
(ccoverage.results
Numbers
p14
c__builtin__
object
p15
NtRp16
(dp17
S'n_files'
p18
I1
sS'n_branches'
p19
I0
sS'n_statements'
p20
I260
sS'n_excluded'
p21
I0
sS'n_partial_branches'
p22
I0
sS'n_missing'
p23
I102
sS'n_missing_branches'
p24
I0
sbssS'hash'
p25
S'7\x1dNa=\x0fn\xe150\xfb\xa0l\x89P\xaf'
p26
ssS'_home_moza_venvs_moza_django_lib_python2_7_site-packages_django_db_models_query'
p27
(dp28
g6
(dp29
g8
S'_home_moza_venvs_moza_django_lib_python2_7_site-packages_django_db_models_query.html'
p30
sg10
S'/home/moza/venvs/moza_django/lib/python2.7/site-packages/django/db/models/query'
p31
sg12
g13
(g14
g15
NtRp32
(dp33
g18
I1
sg19
I0
sg20
I891
sg21
I0
sg22
I0
sg23
I600
sg24
I0
sbssg25
S'\xbb\xbc\xac\x9c\xdb\xc5\xfe\xf3DH\xd3\x92?\x03\x89\xcc'
p34
ssS'_home_moza_venvs_moza_django_lib_python2_7_site-packages_django_core_servers___init__'
p35
(dp36
g6
(dp37
g8
S'_home_moza_venvs_moza_django_lib_python2_7_site-packages_django_core_servers___init__.html'
p38
sg10
S'/home/moza/venvs/moza_django/lib/python2.7/site-packages/django/core/servers/__init__'
p39
sg12
g13
(g14
g15
NtRp40
(dp41
g18
I1
sg19
I0
sg20
I0
sg21
I0
sg22
I0
sg23
I0
sg24
I0
sbssg25
S'\xca\xf5\x9f\x7f\x88\xdfa\x831|T\x1d\xbc}\xa5v'
p42
ssS'_home_moza_venvs_moza_django_lib_python2_7_site-packages_django_db_backends_sqlite3_introspection'
p43
(dp44
g6
(dp45
g8
S'_home_moza_venvs_moza_django_lib_python2_7_site-packages_django_db_backends_sqlite3_introspection.html'
p46
sg10
S'/home/moza/venvs/moza_django/lib/python2.7/site-packages/django/db/backends/sqlite3/introspection'
p47
sg12
g13
(g14
g15
NtRp48
(dp49
g18
I1
sg19
I0
sg20
I92
sg21
I0
sg22
I0
sg23
I74
sg24
I0
sbssg25
S'\xd5\xdd\xe6?s\xa3\x87\x96\xd2\x9bg\xa4\xbb\xb3)\x8b'
p50
ssS'_home_moza_venvs_moza_django_lib_python2_7_site-packages_django_views_decorators_csrf'
p51
(dp52
g6
(dp53
g8
S'_home_moza_venvs_moza_django_lib_python2_7_site-packages_django_views_decorators_csrf.html'
p54
sg10
S'/home/moza/venvs/moza_django/lib/python2.7/site-packages/django/views/decorators/csrf'
p55
sg12
g13
(g14
g15
NtRp56
(dp57
g18
I1
sg19
I0
sg20
I27
sg21
I0
sg22
I0
sg23
I9
sg24
I0
sbssg25
S'M\x92\xd4#8<\xf6\x8f>&\xa6\xd02m\x0e\x1d'
p58
ssS'_home_moza_venvs_moza_django_lib_python2_7_site-packages_django_http_cookie'
p59
(dp60
g6
(dp61
g8
S'_home_moza_venvs_moza_django_lib_python2_7_site-packages_django_http_cookie.html'
p62
sg10
S'/home/moza/venvs/moza_django/lib/python2.7/site-packages/django/http/cookie'
p63
sg12
g13
(g14
g15
NtRp64
(dp65
g18
I1
sg19
I0
sg20
I53
sg21
I0
sg22
I0
sg23
I35
sg24
I0
sbssg25
S'\xfa\xea\xea`\x8b\x1fj\xea\x8a!0\xcf=%\xd8Q'
p66
ssS'_home_moza_venvs_moza_django_lib_python2_7_site-packages_django_core_management_validation'
p67
(dp68
g6
(dp69
g8
S'_home_moza_venvs_moza_django_lib_python2_7_site-packages_django_core_management_validation.html'
p70
sg10
S'/home/moza/venvs/moza_django/lib/python2.7/site-packages/django/core/management/validation'
p71
sg12
g13
(g14
g15
NtRp72
(dp73
g18
I1
sg19
I0
sg20
I253
sg21
I0
sg22
I0
sg23
I125
sg24
I0
sbssg25
S'f-\xe3\xaa\xc8\xd0\x10\r\xf8\x9f\x88J&\x98\xc8\x0b'
p74
ssS'_home_moza_venvs_moza_django_lib_python2_7_site-packages_django_core_paginator'
p75
(dp76
g6
(dp77
g8
S'_home_moza_venvs_moza_django_lib_python2_7_site-packages_django_core_paginator.html'
p78
sg10
S'/home/moza/venvs/moza_django/lib/python2.7/site-packages/django/core/paginator'
p79
sg12
g13
(g14
g15
NtRp80
(dp81
g18
I1
sg19
I0
sg20
I90
sg21
I0
sg22
I0
sg23
I57
sg24
I0
sbssg25
S'\xba\x166\xa1`>\xf5\x99\x83\xc2\xbeN\xf9\xf0\xca;'
p82
ssS'_home_moza_venvs_moza_django_lib_python2_7_site-packages_django_http_request'
p83
(dp84
g6
(dp85
g8
S'_home_moza_venvs_moza_django_lib_python2_7_site-packages_django_http_request.html'
p86
sg10
S'/home/moza/venvs/moza_django/lib/python2.7/site-packages/django/http/request'
p87
sg12
g13
(g14
g15
NtRp88
(dp89
g18
I1
sg19
I0
sg20
I287
sg21
I0
sg22
I0
sg23
I216
sg24
I0
sbssg25
S'0={\x9db\x8d\\\x1ds\xc5\x92_\x8c\xc2c\x81'
p90
ssS'_home_moza_venvs_moza_django_lib_python2_7_site-packages_django_db_models_aggregates'
p91
(dp92
g6
(dp93
g8
S'_home_moza_venvs_moza_django_lib_python2_7_site-packages_django_db_models_aggregates.html'
p94
sg10
S'/home/moza/venvs/moza_django/lib/python2.7/site-packages/django/db/models/aggregates'
p95
sg12
g13
(g14
g15
NtRp96
(dp97
g18
I1
sg19
I0
sg20
I31
sg21
I0
sg22
I0
sg23
I7
sg24
I0
sbssg25
S'h1I\x13\xd4\xe9\xf2\x0fh\x1b\xb2T\x99\x9b\xba\xbd'
p98
ssS'_home_moza_venvs_moza_django_lib_python2_7_site-packages_django_db_models_related'
p99
(dp100
g6
(dp101
g8
S'_home_moza_venvs_moza_django_lib_python2_7_site-packages_django_db_models_related.html'
p102
sg10
S'/home/moza/venvs/moza_django/lib/python2.7/site-packages/django/db/models/related'
p103
sg12
g13
(g14
g15
NtRp104
(dp105
g18
I1
sg19
I0
sg20
I35
sg21
I0
sg22
I0
sg23
I13
sg24
I0
sbssg25
S'\x91\xa2\xf9\xe3\x11\xf9\x12;\x91?\xdcZ\xa9\x1a\xb0f'
p106
ssS'_home_moza_venvs_moza_django_lib_python2_7_site-packages_django_utils_importlib'
p107
(dp108
g6
(dp109
g8
S'_home_moza_venvs_moza_django_lib_python2_7_site-packages_django_utils_importlib.html'
p110
sg10
S'/home/moza/venvs/moza_django/lib/python2.7/site-packages/django/utils/importlib'
p111
sg12
g13
(g14
g15
NtRp112
(dp113
g18
I1
sg19
I0
sg20
I26
sg21
I0
sg22
I0
sg23
I7
sg24
I0
sbssg25
S"g\xa7\xbe' \x98\x16\x85\xd4\xd4[\xbd\xd0\xd6\xd2\xd1"
p114
ssS'_home_moza_venvs_moza_django_lib_python2_7_site-packages_django_db_backends_sqlite3_creation'
p115
(dp116
g6
(dp117
g8
S'_home_moza_venvs_moza_django_lib_python2_7_site-packages_django_db_backends_sqlite3_creation.html'
p118
sg10
S'/home/moza/venvs/moza_django/lib/python2.7/site-packages/django/db/backends/sqlite3/creation'
p119
sg12
g13
(g14
g15
NtRp120
(dp121
g18
I1
sg19
I0
sg20
I42
sg21
I0
sg22
I0
sg23
I16
sg24
I0
sbssg25
S'(\x8c\xc8\xf8\xf7\x16}uR\xc0-\xe5\x9fh\xdf\x19'
p122
ssS'_home_moza_venvs_moza_django_lib_python2_7_site-packages_django_views_debug'
p123
(dp124
g6
(dp125
g8
S'_home_moza_venvs_moza_django_lib_python2_7_site-packages_django_views_debug.html'
p126
sg10
S'/home/moza/venvs/moza_django/lib/python2.7/site-packages/django/views/debug'
p127
sg12
g13
(g14
g15
NtRp128
(dp129
g18
I1
sg19
I0
sg20
I291
sg21
I0
sg22
I0
sg23
I242
sg24
I0
sbssg25
S'(\x9a"o\xe1\x07\x9f\xec\xb5\x0c\x96\xbaM\xe3\x19\xa1'
p130
ssS'_home_moza_venvs_moza_django_lib_python2_7_site-packages_django_db_backends_creation'
p131
(dp132
g6
(dp133
g8
S'_home_moza_venvs_moza_django_lib_python2_7_site-packages_django_db_backends_creation.html'
p134
sg10
S'/home/moza/venvs/moza_django/lib/python2.7/site-packages/django/db/backends/creation'
p135
sg12
g13
(g14
g15
NtRp136
(dp137
g18
I1
sg19
I0
sg20
I254
sg21
I0
sg22
I0
sg23
I119
sg24
I0
sbssg25
S'\x1fA\xca_\x9d]F\x12o\xb35)Ce<\xff'
p138
ssS'_home_moza_venvs_moza_django_lib_python2_7_site-packages_django_core_management_sql'
p139
(dp140
g6
(dp141
g8
S'_home_moza_venvs_moza_django_lib_python2_7_site-packages_django_core_management_sql.html'
p142
sg10
S'/home/moza/venvs/moza_django/lib/python2.7/site-packages/django/core/management/sql'
p143
sg12
g13
(g14
g15
NtRp144
(dp145
g18
I1
sg19
I0
sg20
I126
sg21
I0
sg22
I0
sg23
I82
sg24
I0
sbssg25
S'Z\x0b\xbe\x89\xce\x0b\x1e]G\r\x12\x95\xeb\x06\xc0g'
p146
ssS'_home_moza_venvs_moza_django_lib_python2_7_site-packages_django_conf_locale_en_formats'
p147
(dp148
g6
(dp149
g8
S'_home_moza_venvs_moza_django_lib_python2_7_site-packages_django_conf_locale_en_formats.html'
p150
sg10
S'/home/moza/venvs/moza_django/lib/python2.7/site-packages/django/conf/locale/en/formats'
p151
sg12
g13
(g14
g15
NtRp152
(dp153
g18
I1
sg19
I0
sg20
I14
sg21
I0
sg22
I0
sg23
I0
sg24
I0
sbssg25
S'\x177\xa3\xb10\xbb?\x8e\xfd\x1bj\xf8\xf8\xe3D\xe0'
p154
ssS'_home_moza_venvs_moza_django_lib_python2_7_site-packages_django_core_mail_message'
p155
(dp156
g6
(dp157
g8
S'_home_moza_venvs_moza_django_lib_python2_7_site-packages_django_core_mail_message.html'
p158
sg10
S'/home/moza/venvs/moza_django/lib/python2.7/site-packages/django/core/mail/message'
p159
sg12
g13
(g14
g15
NtRp160
(dp161
g18
I1
sg19
I0
sg20
I228
sg21
I0
sg22
I0
sg23
I171
sg24
I0
sbssg25
S'b4\xba\xbb\x94\x9b\xbc\xa0Bs!}N\x87\xc3\xe7'
p162
ssS'_home_moza_venvs_moza_django_lib_python2_7_site-packages_django_utils_dateformat'
p163
(dp164
g6
(dp165
g8
S'_home_moza_venvs_moza_django_lib_python2_7_site-packages_django_utils_dateformat.html'
p166
sg10
S'/home/moza/venvs/moza_django/lib/python2.7/site-packages/django/utils/dateformat'
p167
sg12
g13
(g14
g15
NtRp168
(dp169
g18
I1
sg19
I0
sg20
I181
sg21
I0
sg22
I0
sg23
I119
sg24
I0
sbssg25
S'\xf2\xe4\xae\x83\xc8uL]\xa9;@\xf9-\x1e\x9b\xeb'
p170
ssS'moza_django_settings_base'
p171
(dp172
g6
(dp173
g8
S'moza_django_settings_base.html'
p174
sg10
S'moza_django/settings/base'
p175
sg12
g13
(g14
g15
NtRp176
(dp177
g18
I1
sg19
I0
sg20
I18
sg21
I0
sg22
I0
sg23
I4
sg24
I0
sbssg25
S'\x06\xbb_\xfe\x84n\xddG\x82\xde\xbd\x1f\\."\xff'
p178
ssS'_home_moza_venvs_moza_django_lib_python2_7_site-packages_django_http_multipartparser'
p179
(dp180
g6
(dp181
g8
S'_home_moza_venvs_moza_django_lib_python2_7_site-packages_django_http_multipartparser.html'
p182
sg10
S'/home/moza/venvs/moza_django/lib/python2.7/site-packages/django/http/multipartparser'
p183
sg12
g13
(g14
g15
NtRp184
(dp185
g18
I1
sg19
I0
sg20
I345
sg21
I0
sg22
I0
sg23
I292
sg24
I0
sbssg25
S'\xc2\xaf\xbb\x19m\xc3*K\xad!\x88)"\xd9\x0e\xfc'
p186
ssS'_home_moza_venvs_moza_django_lib_python2_7_site-packages_django_utils_deprecation'
p187
(dp188
g6
(dp189
g8
S'_home_moza_venvs_moza_django_lib_python2_7_site-packages_django_utils_deprecation.html'
p190
sg10
S'/home/moza/venvs/moza_django/lib/python2.7/site-packages/django/utils/deprecation'
p191
sg12
g13
(g14
g15
NtRp192
(dp193
g18
I1
sg19
I0
sg20
I33
sg21
I0
sg22
I0
sg23
I5
sg24
I0
sbssg25
S'\xeb\x85\x18\x9f2\xed\x0bV\xb3\xe0\xad\xf8\x03B\x94\xb1'
p194
ssS'_home_moza_venvs_moza_django_lib_python2_7_site-packages_django_test_html'
p195
(dp196
g6
(dp197
g8
S'_home_moza_venvs_moza_django_lib_python2_7_site-packages_django_test_html.html'
p198
sg10
S'/home/moza/venvs/moza_django/lib/python2.7/site-packages/django/test/html'
p199
sg12
g13
(g14
g15
NtRp200
(dp201
g18
I1
sg19
I0
sg20
I167
sg21
I0
sg22
I0
sg23
I128
sg24
I0
sbssg25
S'\x06\xa8a\xd2-a\x8b\xeb\xff\xae\x87>\xd0\xdf\xd4\xa7'
p202
ssS'_home_moza_venvs_moza_django_lib_python2_7_site-packages_django_contrib_sessions_models'
p203
(dp204
g6
(dp205
g8
S'_home_moza_venvs_moza_django_lib_python2_7_site-packages_django_contrib_sessions_models.html'
p206
sg10
S'/home/moza/venvs/moza_django/lib/python2.7/site-packages/django/contrib/sessions/models'
p207
sg12
g13
(g14
g15
NtRp208
(dp209
g18
I1
sg19
I0
sg20
I23
sg21
I0
sg22
I0
sg23
I7
sg24
I0
sbssg25
S'\xc4\x88\x1f\xbd1SuJ!\xba\x0c\x17\x01d\xf9\x0e'
p210
ssS'_home_moza_venvs_moza_django_lib_python2_7_site-packages_django_core___init__'
p211
(dp212
g6
(dp213
g8
S'_home_moza_venvs_moza_django_lib_python2_7_site-packages_django_core___init__.html'
p214
sg10
S'/home/moza/venvs/moza_django/lib/python2.7/site-packages/django/core/__init__'
p215
sg12
g13
(g14
g15
NtRp216
(dp217
g18
I1
sg19
I0
sg20
I0
sg21
I0
sg22
I0
sg23
I0
sg24
I0
sbssg25
S'\xca\xf5\x9f\x7f\x88\xdfa\x831|T\x1d\xbc}\xa5v'
p218
ssS'_home_moza_venvs_moza_django_lib_python2_7_site-packages_django_core_mail___init__'
p219
(dp220
g6
(dp221
g8
S'_home_moza_venvs_moza_django_lib_python2_7_site-packages_django_core_mail___init__.html'
p222
sg10
S'/home/moza/venvs/moza_django/lib/python2.7/site-packages/django/core/mail/__init__'
p223
sg12
g13
(g14
g15
NtRp224
(dp225
g18
I1
sg19
I0
sg20
I29
sg21
I0
sg22
I0
sg23
I19
sg24
I0
sbssg25
S'\xa329U/O6F\xe8A+\xba\xb3\x96~\x7f'
p226
ssS'_home_moza_venvs_moza_django_lib_python2_7_site-packages_django_contrib_auth_forms'
p227
(dp228
g6
(dp229
g8
S'_home_moza_venvs_moza_django_lib_python2_7_site-packages_django_contrib_auth_forms.html'
p230
sg10
S'/home/moza/venvs/moza_django/lib/python2.7/site-packages/django/contrib/auth/forms'
p231
sg12
g13
(g14
g15
NtRp232
(dp233
g18
I1
sg19
I0
sg20
I184
sg21
I0
sg22
I0
sg23
I104
sg24
I0
sbssg25
S'_Q\xad?\x18\x1bg\xbfK\xe8tE\xdb\x9dl\xaa'
p234
ssS'_home_moza_venvs_moza_django_lib_python2_7_site-packages_django_dispatch___init__'
p235
(dp236
g6
(dp237
g8
S'_home_moza_venvs_moza_django_lib_python2_7_site-packages_django_dispatch___init__.html'
p238
sg10
S'/home/moza/venvs/moza_django/lib/python2.7/site-packages/django/dispatch/__init__'
p239
sg12
g13
(g14
g15
NtRp240
(dp241
g18
I1
sg19
I0
sg20
I1
sg21
I0
sg22
I0
sg23
I0
sg24
I0
sbssg25
S'\x0c\x08\x7f\xbb\x1cX\xc3a\xeb(\xac\xfd\x85h<\x9f'
p242
ssS'_home_moza_venvs_moza_django_lib_python2_7_site-packages_django_utils_html_parser'
p243
(dp244
g6
(dp245
g8
S'_home_moza_venvs_moza_django_lib_python2_7_site-packages_django_utils_html_parser.html'
p246
sg10
S'/home/moza/venvs/moza_django/lib/python2.7/site-packages/django/utils/html_parser'
p247
sg12
g13
(g14
g15
NtRp248
(dp249
g18
I1
sg19
I0
sg20
I82
sg21
I0
sg22
I0
sg23
I74
sg24
I0
sbssg25
S'\x87d\xc4\xd5\x1d\x83\x0c\xb2e#g\xbe1\xa2\x07\xa9'
p250
ssS'_home_moza_venvs_moza_django_lib_python2_7_site-packages_django_utils_cache'
p251
(dp252
g6
(dp253
g8
S'_home_moza_venvs_moza_django_lib_python2_7_site-packages_django_utils_cache.html'
p254
sg10
S'/home/moza/venvs/moza_django/lib/python2.7/site-packages/django/utils/cache'
p255
sg12
g13
(g14
g15
NtRp256
(dp257
g18
I1
sg19
I0
sg20
I133
sg21
I0
sg22
I0
sg23
I109
sg24
I0
sbssg25
S'\xe1\xdf\\P\xe1\xb5\xb4\xdb\xbc\xb8\xca\xa7@@N\xb6'
p258
ssS'_home_moza_venvs_moza_django_lib_python2_7_site-packages_django_contrib_contenttypes_models'
p259
(dp260
g6
(dp261
g8
S'_home_moza_venvs_moza_django_lib_python2_7_site-packages_django_contrib_contenttypes_models.html'
p262
sg10
S'/home/moza/venvs/moza_django/lib/python2.7/site-packages/django/contrib/contenttypes/models'
p263
sg12
g13
(g14
g15
NtRp264
(dp265
g18
I1
sg19
I0
sg20
I96
sg21
I0
sg22
I0
sg23
I49
sg24
I0
sbssg25
S'IBc\x9e`A\xe3\xa9\xa2\xaf\x1d\x94IAR-'
p266
ssS'_home_moza_venvs_moza_django_lib_python2_7_site-packages_django_template___init__'
p267
(dp268
g6
(dp269
g8
S'_home_moza_venvs_moza_django_lib_python2_7_site-packages_django_template___init__.html'
p270
sg10
S'/home/moza/venvs/moza_django/lib/python2.7/site-packages/django/template/__init__'
p271
sg12
g13
(g14
g15
NtRp272
(dp273
g18
I1
sg19
I0
sg20
I6
sg21
I0
sg22
I0
sg23
I0
sg24
I0
sbssg25
S'\xc2\n\xeb\xe1\x06\xdfW\rFf\x0f\xe9\x95\x8e[#'
p274
ssS'_home_moza_venvs_moza_django_lib_python2_7_site-packages_django_contrib_staticfiles_models'
p275
(dp276
g6
(dp277
g8
S'_home_moza_venvs_moza_django_lib_python2_7_site-packages_django_contrib_staticfiles_models.html'
p278
sg10
S'/home/moza/venvs/moza_django/lib/python2.7/site-packages/django/contrib/staticfiles/models'
p279
sg12
g13
(g14
g15
NtRp280
(dp281
g18
I1
sg19
I0
sg20
I0
sg21
I0
sg22
I0
sg23
I0
sg24
I0
sbssg25
S'\xca\xf5\x9f\x7f\x88\xdfa\x831|T\x1d\xbc}\xa5v'
p282
ssS'_home_moza_venvs_moza_django_lib_python2_7_site-packages_django_contrib_sessions_management___init__'
p283
(dp284
g6
(dp285
g8
S'_home_moza_venvs_moza_django_lib_python2_7_site-packages_django_contrib_sessions_management___init__.html'
p286
sg10
S'/home/moza/venvs/moza_django/lib/python2.7/site-packages/django/contrib/sessions/management/__init__'
p287
sg12
g13
(g14
g15
NtRp288
(dp289
g18
I1
sg19
I0
sg20
I0
sg21
I0
sg22
I0
sg23
I0
sg24
I0
sbssg25
S'\xca\xf5\x9f\x7f\x88\xdfa\x831|T\x1d\xbc}\xa5v'
p290
ssS'_home_moza_venvs_moza_django_lib_python2_7_site-packages_django_core_files_storage'
p291
(dp292
g6
(dp293
g8
S'_home_moza_venvs_moza_django_lib_python2_7_site-packages_django_core_files_storage.html'
p294
sg10
S'/home/moza/venvs/moza_django/lib/python2.7/site-packages/django/core/files/storage'
p295
sg12
g13
(g14
g15
NtRp296
(dp297
g18
I1
sg19
I0
sg20
I146
sg21
I0
sg22
I0
sg23
I100
sg24
I0
sbssg25
S'`e7\xff\x82\xaf\xd0\x0c\x98\xe1p\xaf[\xbd*\x14'
p298
ssS'_home_moza_venvs_moza_django_lib_python2_7_site-packages_django_utils_synch'
p299
(dp300
g6
(dp301
g8
S'_home_moza_venvs_moza_django_lib_python2_7_site-packages_django_utils_synch.html'
p302
sg10
S'/home/moza/venvs/moza_django/lib/python2.7/site-packages/django/utils/synch'
p303
sg12
g13
(g14
g15
NtRp304
(dp305
g18
I1
sg19
I0
sg20
I59
sg21
I0
sg22
I0
sg23
I41
sg24
I0
sbssg25
S'\x1d\x7f\x84\xd0\xf3\xbc\xb6\xf4\x9c\xa7\x06c\xf5A\xc70'
p306
ssS'_home_moza_venvs_moza_django_lib_python2_7_site-packages_django_forms_fields'
p307
(dp308
g6
(dp309
g8
S'_home_moza_venvs_moza_django_lib_python2_7_site-packages_django_forms_fields.html'
p310
sg10
S'/home/moza/venvs/moza_django/lib/python2.7/site-packages/django/forms/fields'
p311
sg12
g13
(g14
g15
NtRp312
(dp313
g18
I1
sg19
I0
sg20
I642
sg21
I0
sg22
I0
sg23
I428
sg24
I0
sbssg25
S'\x1bT\x84\xd3\xe7\xc2\xcd\x9b\xc1\x90)^\x82m\xe9\xa4'
p314
ssS'_home_moza_venvs_moza_django_lib_python2_7_site-packages_django_utils_ipv6'
p315
(dp316
g6
(dp317
g8
S'_home_moza_venvs_moza_django_lib_python2_7_site-packages_django_utils_ipv6.html'
p318
sg10
S'/home/moza/venvs/moza_django/lib/python2.7/site-packages/django/utils/ipv6'
p319
sg12
g13
(g14
g15
NtRp320
(dp321
g18
I1
sg19
I0
sg20
I108
sg21
I0
sg22
I0
sg23
I99
sg24
I0
sbssg25
S'\xe3d\xb6\xc6G\xbc\x05=\x85j\xee~\xfb\xd2g\xda'
p322
ssS'_home_moza_venvs_moza_django_lib_python2_7_site-packages_django_core_management_commands_test'
p323
(dp324
g6
(dp325
g8
S'_home_moza_venvs_moza_django_lib_python2_7_site-packages_django_core_management_commands_test.html'
p326
sg10
S'/home/moza/venvs/moza_django/lib/python2.7/site-packages/django/core/management/commands/test'
p327
sg12
g13
(g14
g15
NtRp328
(dp329
g18
I1
sg19
I0
sg20
I46
sg21
I0
sg22
I0
sg23
I6
sg24
I0
sbssg25
S'\x96I\xcdy\xccc\x1b\xe6,SG\x00\x12\x8d\xb6W'
p330
ssS'_home_moza_venvs_moza_django_lib_python2_7_site-packages_django_db_models_manager'
p331
(dp332
g6
(dp333
g8
S'_home_moza_venvs_moza_django_lib_python2_7_site-packages_django_db_models_manager.html'
p334
sg10
S'/home/moza/venvs/moza_django/lib/python2.7/site-packages/django/db/models/manager'
p335
sg12
g13
(g14
g15
NtRp336
(dp337
g18
I1
sg19
I0
sg20
I170
sg21
I0
sg22
I0
sg23
I42
sg24
I0
sbssg25
S'\xee\xfd}\x92\x94\x02\xe7\xe4\xe2$,z<u\xdaN'
p338
ssS'_home_moza_venvs_moza_django_lib_python2_7_site-packages_django_core_signals'
p339
(dp340
g6
(dp341
g8
S'_home_moza_venvs_moza_django_lib_python2_7_site-packages_django_core_signals.html'
p342
sg10
S'/home/moza/venvs/moza_django/lib/python2.7/site-packages/django/core/signals'
p343
sg12
g13
(g14
g15
NtRp344
(dp345
g18
I1
sg19
I0
sg20
I4
sg21
I0
sg22
I0
sg23
I0
sg24
I0
sbssg25
S'\x11)\xaf\xa7<%!O_\xa5\xae\x81Dl\xa7C'
p346
ssS'_home_moza_venvs_moza_django_lib_python2_7_site-packages_django_utils_datetime_safe'
p347
(dp348
g6
(dp349
g8
S'_home_moza_venvs_moza_django_lib_python2_7_site-packages_django_utils_datetime_safe.html'
p350
sg10
S'/home/moza/venvs/moza_django/lib/python2.7/site-packages/django/utils/datetime_safe'
p351
sg12
g13
(g14
g15
NtRp352
(dp353
g18
I1
sg19
I0
sg20
I56
sg21
I0
sg22
I0
sg23
I42
sg24
I0
sbssg25
S'\xce\xd7J\x80\x7fi\xb5\xc2\x830\xe4\x10\x06@\xd5H'
p354
ssS'_home_moza_venvs_moza_django_lib_python2_7_site-packages_django_contrib_admin_templatetags_admin_urls'
p355
(dp356
g6
(dp357
g8
S'_home_moza_venvs_moza_django_lib_python2_7_site-packages_django_contrib_admin_templatetags_admin_urls.html'
p358
sg10
S'/home/moza/venvs/moza_django/lib/python2.7/site-packages/django/contrib/admin/templatetags/admin_urls'
p359
sg12
g13
(g14
g15
NtRp360
(dp361
g18
I1
sg19
I0
sg20
I35
sg21
I0
sg22
I0
sg23
I25
sg24
I0
sbssg25
S";\x83'K.0A\xa4\xe4\x02\xd4-\x03\xe7l\x0f"
p362
ssS'_home_moza_venvs_moza_django_lib_python2_7_site-packages_django_conf_locale_en___init__'
p363
(dp364
g6
(dp365
g8
S'_home_moza_venvs_moza_django_lib_python2_7_site-packages_django_conf_locale_en___init__.html'
p366
sg10
S'/home/moza/venvs/moza_django/lib/python2.7/site-packages/django/conf/locale/en/__init__'
p367
sg12
g13
(g14
g15
NtRp368
(dp369
g18
I1
sg19
I0
sg20
I0
sg21
I0
sg22
I0
sg23
I0
sg24
I0
sbssg25
S'\xca\xf5\x9f\x7f\x88\xdfa\x831|T\x1d\xbc}\xa5v'
p370
ssS'_home_moza_venvs_moza_django_lib_python2_7_site-packages_django_contrib_admin_helpers'
p371
(dp372
g6
(dp373
g8
S'_home_moza_venvs_moza_django_lib_python2_7_site-packages_django_contrib_admin_helpers.html'
p374
sg10
S'/home/moza/venvs/moza_django/lib/python2.7/site-packages/django/contrib/admin/helpers'
p375
sg12
g13
(g14
g15
NtRp376
(dp377
g18
I1
sg19
I0
sg20
I243
sg21
I0
sg22
I0
sg23
I178
sg24
I0
sbssg25
S'\xa0\x1e\xb1\xeb\x89\x94\xf4\x89\x07\t\xfd\x17\x0b\x94\x05\x07'
p378
ssS'_home_moza_venvs_moza_django_lib_python2_7_site-packages_django_utils_http'
p379
(dp380
g6
(dp381
g8
S'_home_moza_venvs_moza_django_lib_python2_7_site-packages_django_utils_http.html'
p382
sg10
S'/home/moza/venvs/moza_django/lib/python2.7/site-packages/django/utils/http'
p383
sg12
g13
(g14
g15
NtRp384
(dp385
g18
I1
sg19
I0
sg20
I135
sg21
I0
sg22
I0
sg23
I90
sg24
I0
sbssg25
S'\xaa#\x94\x8c\xe5\xc5\xfe\x0b\xa9\x7f\xe9 \xb2\xb9\x1d\xa3'
p386
ssS'_home_moza_venvs_moza_django_lib_python2_7_site-packages_django_core_handlers_wsgi'
p387
(dp388
g6
(dp389
g8
S'_home_moza_venvs_moza_django_lib_python2_7_site-packages_django_core_handlers_wsgi.html'
p390
sg10
S'/home/moza/venvs/moza_django/lib/python2.7/site-packages/django/core/handlers/wsgi'
p391
sg12
g13
(g14
g15
NtRp392
(dp393
g18
I1
sg19
I0
sg20
I154
sg21
I0
sg22
I0
sg23
I113
sg24
I0
sbssg25
S'\x98\x8d\xdf\xf7\x0c\xebX\xe4\xf5\x96\xdb!\xc7\xfc\x01a'
p394
ssS'_home_moza_venvs_moza_django_lib_python2_7_site-packages_django_core_validators'
p395
(dp396
g6
(dp397
g8
S'_home_moza_venvs_moza_django_lib_python2_7_site-packages_django_core_validators.html'
p398
sg10
S'/home/moza/venvs/moza_django/lib/python2.7/site-packages/django/core/validators'
p399
sg12
g13
(g14
g15
NtRp400
(dp401
g18
I1
sg19
I0
sg20
I133
sg21
I0
sg22
I0
sg23
I58
sg24
I0
sbssg25
S'\xef?\x8fd5e\xcf\xc8a\x98 N\xc1\xf8i\xaa'
p402
ssS'_home_moza_venvs_moza_django_lib_python2_7_site-packages_django_contrib_admin_widgets'
p403
(dp404
g6
(dp405
g8
S'_home_moza_venvs_moza_django_lib_python2_7_site-packages_django_contrib_admin_widgets.html'
p406
sg10
S'/home/moza/venvs/moza_django/lib/python2.7/site-packages/django/contrib/admin/widgets'
p407
sg12
g13
(g14
g15
NtRp408
(dp409
g18
I1
sg19
I0
sg20
I218
sg21
I0
sg22
I0
sg23
I149
sg24
I0
sbssg25
S'\x00\xc8\xa1\xa2D\x8bvh\xb0pO3!o\xe2d'
p410
ssS'_home_moza_venvs_moza_django_lib_python2_7_site-packages_django_utils_baseconv'
p411
(dp412
g6
(dp413
g8
S'_home_moza_venvs_moza_django_lib_python2_7_site-packages_django_utils_baseconv.html'
p414
sg10
S'/home/moza/venvs/moza_django/lib/python2.7/site-packages/django/utils/baseconv'
p415
sg12
g13
(g14
g15
NtRp416
(dp417
g18
I1
sg19
I0
sg20
I48
sg21
I0
sg22
I0
sg23
I25
sg24
I0
sbssg25
S'\x10o\xe0R\x15\xc8\xd3.&\xfa\xd7"k\xbf\xa1Z'
p418
ssS'_home_moza_venvs_moza_django_lib_python2_7_site-packages_django_contrib_contenttypes_management'
p419
(dp420
g6
(dp421
g8
S'_home_moza_venvs_moza_django_lib_python2_7_site-packages_django_contrib_contenttypes_management.html'
p422
sg10
S'/home/moza/venvs/moza_django/lib/python2.7/site-packages/django/contrib/contenttypes/management'
p423
sg12
g13
(g14
g15
NtRp424
(dp425
g18
I1
sg19
I0
sg20
I44
sg21
I0
sg22
I0
sg23
I19
sg24
I0
sbssg25
S'\xad\xdfL\x089\xdd\xe6\x8d\xeb\xa2\xb1\xea\xf6\xd2Bz'
p426
ssS'_home_moza_venvs_moza_django_lib_python2_7_site-packages_django_db_models_base'
p427
(dp428
g6
(dp429
g8
S'_home_moza_venvs_moza_django_lib_python2_7_site-packages_django_db_models_base.html'
p430
sg10
S'/home/moza/venvs/moza_django/lib/python2.7/site-packages/django/db/models/base'
p431
sg12
g13
(g14
g15
NtRp432
(dp433
g18
I1
sg19
I0
sg20
I559
sg21
I0
sg22
I0
sg23
I317
sg24
I0
sbssg25
S'^m\xf0\xa38\xfc 0\xef[\xc1\x8am\xd2m2'
p434
ssS'_home_moza_venvs_moza_django_lib_python2_7_site-packages_django_db_models_fields_subclassing'
p435
(dp436
g6
(dp437
g8
S'_home_moza_venvs_moza_django_lib_python2_7_site-packages_django_db_models_fields_subclassing.html'
p438
sg10
S'/home/moza/venvs/moza_django/lib/python2.7/site-packages/django/db/models/fields/subclassing'
p439
sg12
g13
(g14
g15
NtRp440
(dp441
g18
I1
sg19
I0
sg20
I21
sg21
I0
sg22
I0
sg23
I14
sg24
I0
sbssg25
S'\xfd\xd2YH\xdb\x1a6<\xf8\xa0\xbc\x99fr\x0f\x8a'
p442
ssS'_home_moza_venvs_moza_django_lib_python2_7_site-packages_django_db_models_sql_where'
p443
(dp444
g6
(dp445
g8
S'_home_moza_venvs_moza_django_lib_python2_7_site-packages_django_db_models_sql_where.html'
p446
sg10
S'/home/moza/venvs/moza_django/lib/python2.7/site-packages/django/db/models/sql/where'
p447
sg12
g13
(g14
g15
NtRp448
(dp449
g18
I1
sg19
I0
sg20
I230
sg21
I0
sg22
I0
sg23
I104
sg24
I0
sbssg25
S'%\x0ck\x94\x0b\xbaK\x93QMO\xa1\x9f0\xb3T'
p450
ssS'_home_moza_venvs_moza_django_lib_python2_7_site-packages_django_contrib_messages_storage___init__'
p451
(dp452
g6
(dp453
g8
S'_home_moza_venvs_moza_django_lib_python2_7_site-packages_django_contrib_messages_storage___init__.html'
p454
sg10
S'/home/moza/venvs/moza_django/lib/python2.7/site-packages/django/contrib/messages/storage/__init__'
p455
sg12
g13
(g14
g15
NtRp456
(dp457
g18
I1
sg19
I0
sg20
I3
sg21
I0
sg22
I0
sg23
I0
sg24
I0
sbssg25
S'V\x94\xb8\x83~\xeb\xbbT\xecJ\x02\xdd*\x08B\xad'
p458
ssS'_home_moza_venvs_moza_django_lib_python2_7_site-packages_django_db_models_deletion'
p459
(dp460
g6
(dp461
g8
S'_home_moza_venvs_moza_django_lib_python2_7_site-packages_django_db_models_deletion.html'
p462
sg10
S'/home/moza/venvs/moza_django/lib/python2.7/site-packages/django/db/models/deletion'
p463
sg12
g13
(g14
g15
NtRp464
(dp465
g18
I1
sg19
I0
sg20
I152
sg21
I0
sg22
I0
sg23
I92
sg24
I0
sbssg25
S'\xb6y\xb2\x85\xff#\xa1V\x14uk\xc8\x89\xfa\xa2g'
p466
ssS'_home_moza_venvs_moza_django_lib_python2_7_site-packages_django_forms_formsets'
p467
(dp468
g6
(dp469
g8
S'_home_moza_venvs_moza_django_lib_python2_7_site-packages_django_forms_formsets.html'
p470
sg10
S'/home/moza/venvs/moza_django/lib/python2.7/site-packages/django/forms/formsets'
p471
sg12
g13
(g14
g15
NtRp472
(dp473
g18
I1
sg19
I0
sg20
I214
sg21
I0
sg22
I0
sg23
I155
sg24
I0
sbssg25
S'\x05*\x85\xe6{c\xf3WX\xb5\x12$]&J\xe0'
p474
ssS'_home_moza_venvs_moza_django_lib_python2_7_site-packages_django_core_cache_backends_base'
p475
(dp476
g6
(dp477
g8
S'_home_moza_venvs_moza_django_lib_python2_7_site-packages_django_core_cache_backends_base.html'
p478
sg10
S'/home/moza/venvs/moza_django/lib/python2.7/site-packages/django/core/cache/backends/base'
p479
sg12
g13
(g14
g15
NtRp480
(dp481
g18
I1
sg19
I0
sg20
I100
sg21
I0
sg22
I0
sg23
I53
sg24
I0
sbssg25
S'\xe0\\7=N\xbb\xcb\xdc\x00c\xa9A\xc5\xe9R\xbc'
p482
ssS'_home_moza_venvs_moza_django_lib_python2_7_site-packages_django_dispatch_saferef'
p483
(dp484
g6
(dp485
g8
S'_home_moza_venvs_moza_django_lib_python2_7_site-packages_django_dispatch_saferef.html'
p486
sg10
S'/home/moza/venvs/moza_django/lib/python2.7/site-packages/django/dispatch/saferef'
p487
sg12
g13
(g14
g15
NtRp488
(dp489
g18
I1
sg19
I0
sg20
I84
sg21
I0
sg22
I0
sg23
I29
sg24
I0
sbssg25
S'=\x11\xdeI\xa2\xf1O]\x19\xcb\x9c\xadi2\xabN'
p490
ssS'_home_moza_venvs_moza_django_lib_python2_7_site-packages_django_contrib_messages_models'
p491
(dp492
g6
(dp493
g8
S'_home_moza_venvs_moza_django_lib_python2_7_site-packages_django_contrib_messages_models.html'
p494
sg10
S'/home/moza/venvs/moza_django/lib/python2.7/site-packages/django/contrib/messages/models'
p495
sg12
g13
(g14
g15
NtRp496
(dp497
g18
I1
sg19
I0
sg20
I0
sg21
I0
sg22
I0
sg23
I0
sg24
I0
sbssg25
S'@\xce\xa8\x1c\x878\x17\xf9\x8fE\xaa\xd8\x99\xe1\x85\x93'
p498
ssS'shoutouts_tests_test_models'
p499
(dp500
g6
(dp501
g8
S'shoutouts_tests_test_models.html'
p502
sg10
S'shoutouts/tests/test_models'
p503
sg12
g13
(g14
g15
NtRp504
(dp505
g18
I1
sg19
I0
sg20
I21
sg21
I0
sg22
I0
sg23
I0
sg24
I0
sbssg25
S'\x85m\x1b\xca\x1f\xf2\xf64\xf8I\xd5\xb9\x90\xe8k\xaf'
p506
ssS'_home_moza_venvs_moza_django_lib_python2_7_site-packages_django_db_models_fields_related'
p507
(dp508
g6
(dp509
g8
S'_home_moza_venvs_moza_django_lib_python2_7_site-packages_django_db_models_fields_related.html'
p510
sg10
S'/home/moza/venvs/moza_django/lib/python2.7/site-packages/django/db/models/fields/related'
p511
sg12
g13
(g14
g15
NtRp512
(dp513
g18
I1
sg19
I0
sg20
I840
sg21
I0
sg22
I0
sg23
I458
sg24
I0
sbssg25
S'\xb6\xf5@\xe3\x18w\x1dPJ\xa0\x08@p$\xd3\x0f'
p514
ssS'_home_moza_venvs_moza_django_lib_python2_7_site-packages_django_core_cache_backends_locmem'
p515
(dp516
g6
(dp517
g8
S'_home_moza_venvs_moza_django_lib_python2_7_site-packages_django_core_cache_backends_locmem.html'
p518
sg10
S'/home/moza/venvs/moza_django/lib/python2.7/site-packages/django/core/cache/backends/locmem'
p519
sg12
g13
(g14
g15
NtRp520
(dp521
g18
I1
sg19
I0
sg20
I118
sg21
I0
sg22
I0
sg23
I92
sg24
I0
sbssg25
S'\x10\xd8\x84L\xcf\xf7~\xb6s\xd6P@cB\xab1'
p522
ssS'_home_moza_venvs_moza_django_lib_python2_7_site-packages_django_db_backends_signals'
p523
(dp524
g6
(dp525
g8
S'_home_moza_venvs_moza_django_lib_python2_7_site-packages_django_db_backends_signals.html'
p526
sg10
S'/home/moza/venvs/moza_django/lib/python2.7/site-packages/django/db/backends/signals'
p527
sg12
g13
(g14
g15
NtRp528
(dp529
g18
I1
sg19
I0
sg20
I2
sg21
I0
sg22
I0
sg23
I0
sg24
I0
sbssg25
S'\xd0\x7fA\xfb\xdfoE\xbc.\x17\x18\xd7\xa5\xbf\x04\xe4'
p530
ssS'_home_moza_venvs_moza_django_lib_python2_7_site-packages_django_contrib___init__'
p531
(dp532
g6
(dp533
g8
S'_home_moza_venvs_moza_django_lib_python2_7_site-packages_django_contrib___init__.html'
p534
sg10
S'/home/moza/venvs/moza_django/lib/python2.7/site-packages/django/contrib/__init__'
p535
sg12
g13
(g14
g15
NtRp536
(dp537
g18
I1
sg19
I0
sg20
I0
sg21
I0
sg22
I0
sg23
I0
sg24
I0
sbssg25
S'\xca\xf5\x9f\x7f\x88\xdfa\x831|T\x1d\xbc}\xa5v'
p538
ssS'_home_moza_venvs_moza_django_lib_python2_7_site-packages_django_contrib_messages_api'
p539
(dp540
g6
(dp541
g8
S'_home_moza_venvs_moza_django_lib_python2_7_site-packages_django_contrib_messages_api.html'
p542
sg10
S'/home/moza/venvs/moza_django/lib/python2.7/site-packages/django/contrib/messages/api'
p543
sg12
g13
(g14
g15
NtRp544
(dp545
g18
I1
sg19
I0
sg20
I34
sg21
I0
sg22
I0
sg23
I20
sg24
I0
sbssg25
S'9\x99\x8a)\xc55\n\x9c\xe2\x9c[C\x0b\xf9\xfd\xf9'
p546
ssS'_home_moza_venvs_moza_django_lib_python2_7_site-packages_django_contrib_auth_hashers'
p547
(dp548
g6
(dp549
g8
S'_home_moza_venvs_moza_django_lib_python2_7_site-packages_django_contrib_auth_hashers.html'
p550
sg10
S'/home/moza/venvs/moza_django/lib/python2.7/site-packages/django/contrib/auth/hashers'
p551
sg12
g13
(g14
g15
NtRp552
(dp553
g18
I1
sg19
I0
sg20
I247
sg21
I0
sg22
I0
sg23
I133
sg24
I0
sbssg25
S'\x01\x91\xf59\xd5\xae\x1d\x93\xb0\x99\xffzz"3\xf8'
p554
ssS'_home_moza_venvs_moza_django_lib_python2_7_site-packages_django_forms_util'
p555
(dp556
g6
(dp557
g8
S'_home_moza_venvs_moza_django_lib_python2_7_site-packages_django_forms_util.html'
p558
sg10
S'/home/moza/venvs/moza_django/lib/python2.7/site-packages/django/forms/util'
p559
sg12
g13
(g14
g15
NtRp560
(dp561
g18
I1
sg19
I0
sg20
I47
sg21
I0
sg22
I0
sg23
I24
sg24
I0
sbssg25
S'u~T\xed\xff\xdf\x10\xea\x0b\xc8\x97^y\x03)\x03'
p562
ssS'_home_moza_venvs_moza_django_lib_python2_7_site-packages_django_core_files_base'
p563
(dp564
g6
(dp565
g8
S'_home_moza_venvs_moza_django_lib_python2_7_site-packages_django_core_files_base.html'
p566
sg10
S'/home/moza/venvs/moza_django/lib/python2.7/site-packages/django/core/files/base'
p567
sg12
g13
(g14
g15
NtRp568
(dp569
g18
I1
sg19
I0
sg20
I106
sg21
I0
sg22
I0
sg23
I70
sg24
I0
sbssg25
S'K\x86\x96w\xed\x98\xed\xfb\xda\xfdj\x0f\x94\xa0\x9f\xb5'
p570
ssS'_home_moza_venvs_moza_django_lib_python2_7_site-packages_django_core_files_move'
p571
(dp572
g6
(dp573
g8
S'_home_moza_venvs_moza_django_lib_python2_7_site-packages_django_core_files_move.html'
p574
sg10
S'/home/moza/venvs/moza_django/lib/python2.7/site-packages/django/core/files/move'
p575
sg12
g13
(g14
g15
NtRp576
(dp577
g18
I1
sg19
I0
sg20
I47
sg21
I0
sg22
I0
sg23
I40
sg24
I0
sbssg25
S'u\xd5\xf9R\x96\xb4M\xdd;\r\x98\x12\xcd\x1a\tH'
p578
ssS'_home_moza_venvs_moza_django_lib_python2_7_site-packages_django_core_serializers_xml_serializer'
p579
(dp580
g6
(dp581
g8
S'_home_moza_venvs_moza_django_lib_python2_7_site-packages_django_core_serializers_xml_serializer.html'
p582
sg10
S'/home/moza/venvs/moza_django/lib/python2.7/site-packages/django/core/serializers/xml_serializer'
p583
sg12
g13
(g14
g15
NtRp584
(dp585
g18
I1
sg19
I0
sg20
I213
sg21
I0
sg22
I0
sg23
I167
sg24
I0
sbssg25
S'o-\xc7\xd6\xdc\x83\x1a\x93j\xf6\xde\xdc\x88u\xb9\x0e'
p586
ssS'_home_moza_venvs_moza_django_lib_python2_7_site-packages_django_utils_formats'
p587
(dp588
g6
(dp589
g8
S'_home_moza_venvs_moza_django_lib_python2_7_site-packages_django_utils_formats.html'
p590
sg10
S'/home/moza/venvs/moza_django/lib/python2.7/site-packages/django/utils/formats'
p591
sg12
g13
(g14
g15
NtRp592
(dp593
g18
I1
sg19
I0
sg20
I117
sg21
I0
sg22
I0
sg23
I58
sg24
I0
sbssg25
S"{\xfdt! '\xf6Y\x98\x14\xf6\x8d\xbf\xd74\xa5"
p594
ssS'_home_moza_venvs_moza_django_lib_python2_7_site-packages_django_contrib_sessions_backends_base'
p595
(dp596
g6
(dp597
g8
S'_home_moza_venvs_moza_django_lib_python2_7_site-packages_django_contrib_sessions_backends_base.html'
p598
sg10
S'/home/moza/venvs/moza_django/lib/python2.7/site-packages/django/contrib/sessions/backends/base'
p599
sg12
g13
(g14
g15
NtRp600
(dp601
g18
I1
sg19
I0
sg20
I181
sg21
I0
sg22
I0
sg23
I120
sg24
I0
sbssg25
S'\xdc\xd8\xe1p\x92Mu\x17\xbd\xa6P\xe3cd-W'
p602
ssS'_home_moza_venvs_moza_django_lib_python2_7_site-packages_django_db_models_sql_subqueries'
p603
(dp604
g6
(dp605
g8
S'_home_moza_venvs_moza_django_lib_python2_7_site-packages_django_db_models_sql_subqueries.html'
p606
sg10
S'/home/moza/venvs/moza_django/lib/python2.7/site-packages/django/db/models/sql/subqueries'
p607
sg12
g13
(g14
g15
NtRp608
(dp609
g18
I1
sg19
I0
sg20
I156
sg21
I0
sg22
I0
sg23
I92
sg24
I0
sbssg25
S'Ii,.\x18\xba\xa1[\x8c\xf8^\xf3\x93:\xd9b'
p610
ssS'_home_moza_venvs_moza_django_lib_python2_7_site-packages_django_db_backends_sqlite3_base'
p611
(dp612
g6
(dp613
g8
S'_home_moza_venvs_moza_django_lib_python2_7_site-packages_django_db_backends_sqlite3_base.html'
p614
sg10
S'/home/moza/venvs/moza_django/lib/python2.7/site-packages/django/db/backends/sqlite3/base'
p615
sg12
g13
(g14
g15
NtRp616
(dp617
g18
I1
sg19
I0
sg20
I300
sg21
I0
sg22
I0
sg23
I133
sg24
I0
sbssg25
S'\xcf\x91)1K\xc5\xb9\x92cb\xfa\xae\xfe<\xd0\xfa'
p618
ssS'_home_moza_venvs_moza_django_lib_python2_7_site-packages_django_contrib_staticfiles_storage'
p619
(dp620
g6
(dp621
g8
S'_home_moza_venvs_moza_django_lib_python2_7_site-packages_django_contrib_staticfiles_storage.html'
p622
sg10
S'/home/moza/venvs/moza_django/lib/python2.7/site-packages/django/contrib/staticfiles/storage'
p623
sg12
g13
(g14
g15
NtRp624
(dp625
g18
I1
sg19
I0
sg20
I183
sg21
I0
sg22
I0
sg23
I144
sg24
I0
sbssg25
S'\x80,^\xbd\xcf\xc7\xbf\x17x\x84\x89\xf0\xf0\xb8%\x93'
p626
ssS'_home_moza_venvs_moza_django_lib_python2_7_site-packages_django_http_utils'
p627
(dp628
g6
(dp629
g8
S'_home_moza_venvs_moza_django_lib_python2_7_site-packages_django_http_utils.html'
p630
sg10
S'/home/moza/venvs/moza_django/lib/python2.7/site-packages/django/http/utils'
p631
sg12
g13
(g14
g15
NtRp632
(dp633
g18
I1
sg19
I0
sg20
I15
sg21
I0
sg22
I0
sg23
I13
sg24
I0
sbssg25
S'%$\x0b\xcc\x12\xddg\xd0km\xa8\x91\x9b7g\xa4'
p634
ssS'_home_moza_venvs_moza_django_lib_python2_7_site-packages_django_contrib_admin_actions'
p635
(dp636
g6
(dp637
g8
S'_home_moza_venvs_moza_django_lib_python2_7_site-packages_django_contrib_admin_actions.html'
p638
sg10
S'/home/moza/venvs/moza_django/lib/python2.7/site-packages/django/contrib/admin/actions'
p639
sg12
g13
(g14
g15
NtRp640
(dp641
g18
I1
sg19
I0
sg20
I35
sg21
I0
sg22
I0
sg23
I25
sg24
I0
sbssg25
S'\xbby\xcf\x97\xa0A\x842\x18\xd8\x87/#\xedDi'
p642
ssS'_home_moza_venvs_moza_django_lib_python2_7_site-packages_django_utils_translation_trans_real'
p643
(dp644
g6
(dp645
g8
S'_home_moza_venvs_moza_django_lib_python2_7_site-packages_django_utils_translation_trans_real.html'
p646
sg10
S'/home/moza/venvs/moza_django/lib/python2.7/site-packages/django/utils/translation/trans_real'
p647
sg12
g13
(g14
g15
NtRp648
(dp649
g18
I1
sg19
I0
sg20
I411
sg21
I0
sg22
I0
sg23
I267
sg24
I0
sbssg25
S'w\x15<\xa9Y\xf6C\x8c\xad\xf4G\xca=L@\x9d'
p650
ssS'_home_moza_venvs_moza_django_lib_python2_7_site-packages_django_shortcuts___init__'
p651
(dp652
g6
(dp653
g8
S'_home_moza_venvs_moza_django_lib_python2_7_site-packages_django_shortcuts___init__.html'
p654
sg10
S'/home/moza/venvs/moza_django/lib/python2.7/site-packages/django/shortcuts/__init__'
p655
sg12
g13
(g14
g15
NtRp656
(dp657
g18
I1
sg19
I0
sg20
I63
sg21
I0
sg22
I0
sg23
I48
sg24
I0
sbssg25
S'F\xbe\x9e+</TI\x9b\x01y\xcfs\x89f:'
p658
ssS'_home_moza_venvs_moza_django_lib_python2_7_site-packages_django_utils_unittest_util'
p659
(dp660
g6
(dp661
g8
S'_home_moza_venvs_moza_django_lib_python2_7_site-packages_django_utils_unittest_util.html'
p662
sg10
S'/home/moza/venvs/moza_django/lib/python2.7/site-packages/django/utils/unittest/util'
p663
sg12
g13
(g14
g15
NtRp664
(dp665
g18
I1
sg19
I0
sg20
I74
sg21
I0
sg22
I0
sg23
I67
sg24
I0
sbssg25
S')\xb0\xd3\xe9\xb4\x86\xbf\x1f\xaaI\xefA\xbf\x9a\xd3\x99'
p666
ssS'_home_moza_venvs_moza_django_lib_python2_7_site-packages_django_contrib_staticfiles_views'
p667
(dp668
g6
(dp669
g8
S'_home_moza_venvs_moza_django_lib_python2_7_site-packages_django_contrib_staticfiles_views.html'
p670
sg10
S'/home/moza/venvs/moza_django/lib/python2.7/site-packages/django/contrib/staticfiles/views'
p671
sg12
g13
(g14
g15
NtRp672
(dp673
g18
I1
sg19
I0
sg20
I19
sg21
I0
sg22
I0
sg23
I10
sg24
I0
sbssg25
S"\xb9\xf1o~'!\xf5\xc4Y\xa1\x16\xb7\x84]\x16\x9e"
p674
ssS'_home_moza_venvs_moza_django_lib_python2_7_site-packages_django_middleware_csrf'
p675
(dp676
g6
(dp677
g8
S'_home_moza_venvs_moza_django_lib_python2_7_site-packages_django_middleware_csrf.html'
p678
sg10
S'/home/moza/venvs/moza_django/lib/python2.7/site-packages/django/middleware/csrf'
p679
sg12
g13
(g14
g15
NtRp680
(dp681
g18
I1
sg19
I0
sg20
I81
sg21
I0
sg22
I0
sg23
I56
sg24
I0
sbssg25
S'\x03G\x84\xe3\xde5\xa7\xa9\x10k\x8c\xa1G|\xdc\xba'
p682
ssS'_home_moza_venvs_moza_django_lib_python2_7_site-packages_django_core_files_uploadedfile'
p683
(dp684
g6
(dp685
g8
S'_home_moza_venvs_moza_django_lib_python2_7_site-packages_django_core_files_uploadedfile.html'
p686
sg10
S'/home/moza/venvs/moza_django/lib/python2.7/site-packages/django/core/files/uploadedfile'
p687
sg12
g13
(g14
g15
NtRp688
(dp689
g18
I1
sg19
I0
sg20
I60
sg21
I0
sg22
I0
sg23
I32
sg24
I0
sbssg25
S'Wl\xd0S\xd7\xc1;\x1f\xce\x1dj\xd7\n5\xd9\x80'
p690
ssS'_home_moza_venvs_moza_django_lib_python2_7_site-packages_django_contrib_staticfiles___init__'
p691
(dp692
g6
(dp693
g8
S'_home_moza_venvs_moza_django_lib_python2_7_site-packages_django_contrib_staticfiles___init__.html'
p694
sg10
S'/home/moza/venvs/moza_django/lib/python2.7/site-packages/django/contrib/staticfiles/__init__'
p695
sg12
g13
(g14
g15
NtRp696
(dp697
g18
I1
sg19
I0
sg20
I0
sg21
I0
sg22
I0
sg23
I0
sg24
I0
sbssg25
S'\xca\xf5\x9f\x7f\x88\xdfa\x831|T\x1d\xbc}\xa5v'
p698
ssS'_home_moza_venvs_moza_django_lib_python2_7_site-packages_django_db_models_sql_compiler'
p699
(dp700
g6
(dp701
g8
S'_home_moza_venvs_moza_django_lib_python2_7_site-packages_django_db_models_sql_compiler.html'
p702
sg10
S'/home/moza/venvs/moza_django/lib/python2.7/site-packages/django/db/models/sql/compiler'
p703
sg12
g13
(g14
g15
NtRp704
(dp705
g18
I1
sg19
I0
sg20
I679
sg21
I0
sg22
I0
sg23
I360
sg24
I0
sbssg25
S'\xdc\xfb\xfc!\x03\n\xc9N\xc2\x01o\x81\x8dg\xc2\x19'
p706
ssS'_home_moza_venvs_moza_django_lib_python2_7_site-packages_django_contrib_admin_models'
p707
(dp708
g6
(dp709
g8
S'_home_moza_venvs_moza_django_lib_python2_7_site-packages_django_contrib_admin_models.html'
p710
sg10
S'/home/moza/venvs/moza_django/lib/python2.7/site-packages/django/contrib/admin/models'
p711
sg12
g13
(g14
g15
NtRp712
(dp713
g18
I1
sg19
I0
sg20
I57
sg21
I0
sg22
I0
sg23
I21
sg24
I0
sbssg25
S'\xf9\xe4mx\x95\x0c(\xf3\xbb\x1ce\x97\xfet<i'
p714
ssS'_home_moza_venvs_moza_django_lib_python2_7_site-packages_django_contrib_admin_options'
p715
(dp716
g6
(dp717
g8
S'_home_moza_venvs_moza_django_lib_python2_7_site-packages_django_contrib_admin_options.html'
p718
sg10
S'/home/moza/venvs/moza_django/lib/python2.7/site-packages/django/contrib/admin/options'
p719
sg12
g13
(g14
g15
NtRp720
(dp721
g18
I1
sg19
I0
sg20
I873
sg21
I0
sg22
I0
sg23
I688
sg24
I0
sbssg25
S'\x99\xb0\xfct\xedacM\xb6\xb6\xa3a\\\x19I\xc4'
p722
ssS'_home_moza_venvs_moza_django_lib_python2_7_site-packages_django_db_models_sql_expressions'
p723
(dp724
g6
(dp725
g8
S'_home_moza_venvs_moza_django_lib_python2_7_site-packages_django_db_models_sql_expressions.html'
p726
sg10
S'/home/moza/venvs/moza_django/lib/python2.7/site-packages/django/db/models/sql/expressions'
p727
sg12
g13
(g14
g15
NtRp728
(dp729
g18
I1
sg19
I0
sg20
I82
sg21
I0
sg22
I0
sg23
I67
sg24
I0
sbssg25
S'4R\xc3\x9eA~\x95}\xe8\x1f\x0b)+l\x12_'
p730
ssS'_home_moza_venvs_moza_django_lib_python2_7_site-packages_django_contrib_staticfiles_utils'
p731
(dp732
g6
(dp733
g8
S'_home_moza_venvs_moza_django_lib_python2_7_site-packages_django_contrib_staticfiles_utils.html'
p734
sg10
S'/home/moza/venvs/moza_django/lib/python2.7/site-packages/django/contrib/staticfiles/utils'
p735
sg12
g13
(g14
g15
NtRp736
(dp737
g18
I1
sg19
I0
sg20
I37
sg21
I0
sg22
I0
sg23
I30
sg24
I0
sbssg25
S'\xb6M\xd2B\xf1\x9e\x87\xba\r|\xc6\xed\x1c\xdb0\x88'
p738
ssS'_home_moza_venvs_moza_django_lib_python2_7_site-packages_django_contrib_sites_models'
p739
(dp740
g6
(dp741
g8
S'_home_moza_venvs_moza_django_lib_python2_7_site-packages_django_contrib_sites_models.html'
p742
sg10
S'/home/moza/venvs/moza_django/lib/python2.7/site-packages/django/contrib/sites/models'
p743
sg12
g13
(g14
g15
NtRp744
(dp745
g18
I1
sg19
I0
sg20
I65
sg21
I0
sg22
I0
sg23
I32
sg24
I0
sbssg25
S'\x94s\xa6-\xd7\x985al\xd5\x9dh\xb7l\xcb-'
p746
ssS'_home_moza_venvs_moza_django_lib_python2_7_site-packages_django_utils___init__'
p747
(dp748
g6
(dp749
g8
S'_home_moza_venvs_moza_django_lib_python2_7_site-packages_django_utils___init__.html'
p750
sg10
S'/home/moza/venvs/moza_django/lib/python2.7/site-packages/django/utils/__init__'
p751
sg12
g13
(g14
g15
NtRp752
(dp753
g18
I1
sg19
I0
sg20
I0
sg21
I0
sg22
I0
sg23
I0
sg24
I0
sbssg25
S'\xca\xf5\x9f\x7f\x88\xdfa\x831|T\x1d\xbc}\xa5v'
p754
ssS'_home_moza_venvs_moza_django_lib_python2_7_site-packages_django_test_testcases'
p755
(dp756
g6
(dp757
g8
S'_home_moza_venvs_moza_django_lib_python2_7_site-packages_django_test_testcases.html'
p758
sg10
S'/home/moza/venvs/moza_django/lib/python2.7/site-packages/django/test/testcases'
p759
sg12
g13
(g14
g15
NtRp760
(dp761
g18
I1
sg19
I0
sg20
I609
sg21
I0
sg22
I0
sg23
I425
sg24
I0
sbssg25
S'-=\xff\x8e\x14ONQ^v\x95\xcdn\x9c\x90\xaa'
p762
ssS'_home_moza_venvs_moza_django_lib_python2_7_site-packages_django_forms___init__'
p763
(dp764
g6
(dp765
g8
S'_home_moza_venvs_moza_django_lib_python2_7_site-packages_django_forms___init__.html'
p766
sg10
S'/home/moza/venvs/moza_django/lib/python2.7/site-packages/django/forms/__init__'
p767
sg12
g13
(g14
g15
NtRp768
(dp769
g18
I1
sg19
I0
sg20
I6
sg21
I0
sg22
I0
sg23
I0
sg24
I0
sbssg25
S'\x88c<\x81\x87\x93\x07\xbe\n\x04\x10Lng\xe5\x95'
p770
ssS'_home_moza_venvs_moza_django_lib_python2_7_site-packages_django_db_models_fields___init__'
p771
(dp772
g6
(dp773
g8
S'_home_moza_venvs_moza_django_lib_python2_7_site-packages_django_db_models_fields___init__.html'
p774
sg10
S'/home/moza/venvs/moza_django/lib/python2.7/site-packages/django/db/models/fields/__init__'
p775
sg12
g13
(g14
g15
NtRp776
(dp777
g18
I1
sg19
I0
sg20
I849
sg21
I0
sg22
I0
sg23
I407
sg24
I0
sbssg25
S'6\xe1\x11\xb4L\xb6\x1d\xc5iF\xd44\xa6Y\x92U'
p778
ssS'_home_moza_venvs_moza_django_lib_python2_7_site-packages_django_contrib_contenttypes___init__'
p779
(dp780
g6
(dp781
g8
S'_home_moza_venvs_moza_django_lib_python2_7_site-packages_django_contrib_contenttypes___init__.html'
p782
sg10
S'/home/moza/venvs/moza_django/lib/python2.7/site-packages/django/contrib/contenttypes/__init__'
p783
sg12
g13
(g14
g15
NtRp784
(dp785
g18
I1
sg19
I0
sg20
I0
sg21
I0
sg22
I0
sg23
I0
sg24
I0
sbssg25
S'\xca\xf5\x9f\x7f\x88\xdfa\x831|T\x1d\xbc}\xa5v'
p786
ssS'_home_moza_venvs_moza_django_lib_python2_7_site-packages_django_contrib_sites___init__'
p787
(dp788
g6
(dp789
g8
S'_home_moza_venvs_moza_django_lib_python2_7_site-packages_django_contrib_sites___init__.html'
p790
sg10
S'/home/moza/venvs/moza_django/lib/python2.7/site-packages/django/contrib/sites/__init__'
p791
sg12
g13
(g14
g15
NtRp792
(dp793
g18
I1
sg19
I0
sg20
I0
sg21
I0
sg22
I0
sg23
I0
sg24
I0
sbssg25
S'\xca\xf5\x9f\x7f\x88\xdfa\x831|T\x1d\xbc}\xa5v'
p794
ssS'moza_django_settings_dev'
p795
(dp796
g6
(dp797
g8
S'moza_django_settings_dev.html'
p798
sg10
S'moza_django/settings/dev'
p799
sg12
g13
(g14
g15
NtRp800
(dp801
g18
I1
sg19
I0
sg20
I1
sg21
I0
sg22
I0
sg23
I0
sg24
I0
sbssg25
S'\x7f~\xbb\xd5w\x1b\xf4T\x92\xc0\xb7\xb4\\\xd6\x81='
p802
ssS'_home_moza_venvs_moza_django_lib_python2_7_site-packages_django_core_mail_utils'
p803
(dp804
g6
(dp805
g8
S'_home_moza_venvs_moza_django_lib_python2_7_site-packages_django_core_mail_utils.html'
p806
sg10
S'/home/moza/venvs/moza_django/lib/python2.7/site-packages/django/core/mail/utils'
p807
sg12
g13
(g14
g15
NtRp808
(dp809
g18
I1
sg19
I0
sg20
I9
sg21
I0
sg22
I0
sg23
I4
sg24
I0
sbssg25
S'1;F\xfb\xb1\rUh=1\x8b}\x9c3\xc3\xbf'
p810
ssS'_home_moza_venvs_moza_django_lib_python2_7_site-packages_django_contrib_admin___init__'
p811
(dp812
g6
(dp813
g8
S'_home_moza_venvs_moza_django_lib_python2_7_site-packages_django_contrib_admin___init__.html'
p814
sg10
S'/home/moza/venvs/moza_django/lib/python2.7/site-packages/django/contrib/admin/__init__'
p815
sg12
g13
(g14
g15
NtRp816
(dp817
g18
I1
sg19
I0
sg20
I19
sg21
I0
sg22
I0
sg23
I13
sg24
I0
sbssg25
S'\xea\xe4\x0f\xb5\x0cQ9\xe6n{,\x07@\x0b\x97k'
p818
ssS'_home_moza_venvs_moza_django_lib_python2_7_site-packages_django_db_models_sql_query'
p819
(dp820
g6
(dp821
g8
S'_home_moza_venvs_moza_django_lib_python2_7_site-packages_django_db_models_sql_query.html'
p822
sg10
S'/home/moza/venvs/moza_django/lib/python2.7/site-packages/django/db/models/sql/query'
p823
sg12
g13
(g14
g15
NtRp824
(dp825
g18
I1
sg19
I0
sg20
I940
sg21
I0
sg22
I0
sg23
I497
sg24
I0
sbssg25
S'\x8b\xd8AI+5t\xfeH\x8f\xb5n\xe5\x9d\xd0\xc1'
p826
ssS'_home_moza_venvs_moza_django_lib_python2_7_site-packages_django_utils_timezone'
p827
(dp828
g6
(dp829
g8
S'_home_moza_venvs_moza_django_lib_python2_7_site-packages_django_utils_timezone.html'
p830
sg10
S'/home/moza/venvs/moza_django/lib/python2.7/site-packages/django/utils/timezone'
p831
sg12
g13
(g14
g15
NtRp832
(dp833
g18
I1
sg19
I0
sg20
I124
sg21
I0
sg22
I0
sg23
I72
sg24
I0
sbssg25
S'\xbc}T\xf2}\xc6)=\xd9E\xf2p\xd3)B\x85'
p834
ssS'_home_moza_venvs_moza_django_lib_python2_7_site-packages_django_db_backends___init__'
p835
(dp836
g6
(dp837
g8
S'_home_moza_venvs_moza_django_lib_python2_7_site-packages_django_db_backends___init__.html'
p838
sg10
S'/home/moza/venvs/moza_django/lib/python2.7/site-packages/django/db/backends/__init__'
p839
sg12
g13
(g14
g15
NtRp840
(dp841
g18
I1
sg19
I0
sg20
I548
sg21
I0
sg22
I0
sg23
I188
sg24
I0
sbssg25
S'K\x8e\xaa\x81p\x96\x1a\xac"\xff\x17\xa0 Iy\xc2'
p842
ssS'_home_moza_venvs_moza_django_lib_python2_7_site-packages_django_core_files_locks'
p843
(dp844
g6
(dp845
g8
S'_home_moza_venvs_moza_django_lib_python2_7_site-packages_django_core_files_locks.html'
p846
sg10
S'/home/moza/venvs/moza_django/lib/python2.7/site-packages/django/core/files/locks'
p847
sg12
g13
(g14
g15
NtRp848
(dp849
g18
I1
sg19
I0
sg20
I40
sg21
I0
sg22
I0
sg23
I23
sg24
I0
sbssg25
S'\xe4\xfe\xbaH\xd9\xb2i_\\\xd6\xd8\xfd\r\x16\xf8\x1a'
p850
ssS'_home_moza_venvs_moza_django_lib_python2_7_site-packages_django_core_files_utils'
p851
(dp852
g6
(dp853
g8
S'_home_moza_venvs_moza_django_lib_python2_7_site-packages_django_core_files_utils.html'
p854
sg10
S'/home/moza/venvs/moza_django/lib/python2.7/site-packages/django/core/files/utils'
p855
sg12
g13
(g14
g15
NtRp856
(dp857
g18
I1
sg19
I0
sg20
I19
sg21
I0
sg22
I0
sg23
I1
sg24
I0
sbssg25
S'\xf9\x11l\xd6u\x8d\xd2\xe3g\x05F\xd6{F\x15\xdc'
p858
ssS'_home_moza_venvs_moza_django_lib_python2_7_site-packages_django_core_management_color'
p859
(dp860
g6
(dp861
g8
S'_home_moza_venvs_moza_django_lib_python2_7_site-packages_django_core_management_color.html'
p862
sg10
S'/home/moza/venvs/moza_django/lib/python2.7/site-packages/django/core/management/color'
p863
sg12
g13
(g14
g15
NtRp864
(dp865
g18
I1
sg19
I0
sg20
I28
sg21
I0
sg22
I0
sg23
I3
sg24
I0
sbssg25
S"\x97\x1d}\xfa\xe0\xf3\xe1\x86a\x9fF'\xcf(\xb5j"
p866
ssS'_home_moza_venvs_moza_django_lib_python2_7_site-packages_django_utils_xmlutils'
p867
(dp868
g6
(dp869
g8
S'_home_moza_venvs_moza_django_lib_python2_7_site-packages_django_utils_xmlutils.html'
p870
sg10
S'/home/moza/venvs/moza_django/lib/python2.7/site-packages/django/utils/xmlutils'
p871
sg12
g13
(g14
g15
NtRp872
(dp873
g18
I1
sg19
I0
sg20
I8
sg21
I0
sg22
I0
sg23
I5
sg24
I0
sbssg25
S'2(\xca\xb7\xc4\x99\xdeW\x96k\xef\xd7\xa3\xda\x8b3'
p874
ssS'_home_moza_venvs_moza_django_lib_python2_7_site-packages_django_db_models_sql___init__'
p875
(dp876
g6
(dp877
g8
S'_home_moza_venvs_moza_django_lib_python2_7_site-packages_django_db_models_sql___init__.html'
p878
sg10
S'/home/moza/venvs/moza_django/lib/python2.7/site-packages/django/db/models/sql/__init__'
p879
sg12
g13
(g14
g15
NtRp880
(dp881
g18
I1
sg19
I0
sg20
I6
sg21
I0
sg22
I0
sg23
I0
sg24
I0
sbssg25
S'\x1c\xc2@\xa8\xcd9\xbe\x01;Hd+\xda.\xae\xd3'
p882
ssS'_home_moza_venvs_moza_django_lib_python2_7_site-packages_django_views_decorators___init__'
p883
(dp884
g6
(dp885
g8
S'_home_moza_venvs_moza_django_lib_python2_7_site-packages_django_views_decorators___init__.html'
p886
sg10
S'/home/moza/venvs/moza_django/lib/python2.7/site-packages/django/views/decorators/__init__'
p887
sg12
g13
(g14
g15
NtRp888
(dp889
g18
I1
sg19
I0
sg20
I0
sg21
I0
sg22
I0
sg23
I0
sg24
I0
sbssg25
S'\xca\xf5\x9f\x7f\x88\xdfa\x831|T\x1d\xbc}\xa5v'
p890
ssS'_home_moza_venvs_moza_django_lib_python2_7_site-packages_django_contrib_auth_tokens'
p891
(dp892
g6
(dp893
g8
S'_home_moza_venvs_moza_django_lib_python2_7_site-packages_django_contrib_auth_tokens.html'
p894
sg10
S'/home/moza/venvs/moza_django/lib/python2.7/site-packages/django/contrib/auth/tokens'
p895
sg12
g13
(g14
g15
NtRp896
(dp897
g18
I1
sg19
I0
sg20
I34
sg21
I0
sg22
I0
sg23
I22
sg24
I0
sbssg25
S'\x835\x03\xf2\xc5\xc6\x97\x80%R\x92dm\xef\xba\xa5'
p898
ssS'_home_moza_venvs_moza_django_lib_python2_7_site-packages_django_core_signing'
p899
(dp900
g6
(dp901
g8
S'_home_moza_venvs_moza_django_lib_python2_7_site-packages_django_core_signing.html'
p902
sg10
S'/home/moza/venvs/moza_django/lib/python2.7/site-packages/django/core/signing'
p903
sg12
g13
(g14
g15
NtRp904
(dp905
g18
I1
sg19
I0
sg20
I86
sg21
I0
sg22
I0
sg23
I54
sg24
I0
sbssg25
S"T\xea\xe3\x07i\xf5\x125g\x00\x8d\n'\xb5\xcf@"
p906
ssS'_home_moza_venvs_moza_django_lib_python2_7_site-packages_django_contrib_auth_management___init__'
p907
(dp908
g6
(dp909
g8
S'_home_moza_venvs_moza_django_lib_python2_7_site-packages_django_contrib_auth_management___init__.html'
p910
sg10
S'/home/moza/venvs/moza_django/lib/python2.7/site-packages/django/contrib/auth/management/__init__'
p911
sg12
g13
(g14
g15
NtRp912
(dp913
g18
I1
sg19
I0
sg20
I101
sg21
I0
sg22
I0
sg23
I49
sg24
I0
sbssg25
S'\xac[[\xa7\x9f\x84\xa9\xd1\x11eL\x05+\xa9Gq'
p914
ssS'_home_moza_venvs_moza_django_lib_python2_7_site-packages_django_core_cache___init__'
p915
(dp916
g6
(dp917
g8
S'_home_moza_venvs_moza_django_lib_python2_7_site-packages_django_core_cache___init__.html'
p918
sg10
S'/home/moza/venvs/moza_django/lib/python2.7/site-packages/django/core/cache/__init__'
p919
sg12
g13
(g14
g15
NtRp920
(dp921
g18
I1
sg19
I0
sg20
I58
sg21
I0
sg22
I0
sg23
I29
sg24
I0
sbssg25
S'\xe0\xbd\xc3;\x14@\xc2T\x92\xf7\xad\xeey\xe8~\xd9'
p922
ssS'_home_moza_venvs_moza_django_lib_python2_7_site-packages_django_db_models_sql_aggregates'
p923
(dp924
g6
(dp925
g8
S'_home_moza_venvs_moza_django_lib_python2_7_site-packages_django_db_models_sql_aggregates.html'
p926
sg10
S'/home/moza/venvs/moza_django/lib/python2.7/site-packages/django/db/models/sql/aggregates'
p927
sg12
g13
(g14
g15
NtRp928
(dp929
g18
I1
sg19
I0
sg20
I61
sg21
I0
sg22
I0
sg23
I13
sg24
I0
sbssg25
S'\xe8\x8c\xbb\x02\x83\xf5\xfa\x18\x0e\xa3_\xb2\xd3W\xe9\xb4'
p930
ssS'_home_moza_venvs_moza_django_lib_python2_7_site-packages_django_template_loaders___init__'
p931
(dp932
g6
(dp933
g8
S'_home_moza_venvs_moza_django_lib_python2_7_site-packages_django_template_loaders___init__.html'
p934
sg10
S'/home/moza/venvs/moza_django/lib/python2.7/site-packages/django/template/loaders/__init__'
p935
sg12
g13
(g14
g15
NtRp936
(dp937
g18
I1
sg19
I0
sg20
I0
sg21
I0
sg22
I0
sg23
I0
sg24
I0
sbssg25
S'\xca\xf5\x9f\x7f\x88\xdfa\x831|T\x1d\xbc}\xa5v'
p938
ssS'_home_moza_venvs_moza_django_lib_python2_7_site-packages_django_http_response'
p939
(dp940
g6
(dp941
g8
S'_home_moza_venvs_moza_django_lib_python2_7_site-packages_django_http_response.html'
p942
sg10
S'/home/moza/venvs/moza_django/lib/python2.7/site-packages/django/http/response'
p943
sg12
g13
(g14
g15
NtRp944
(dp945
g18
I1
sg19
I0
sg20
I242
sg21
I0
sg22
I0
sg23
I149
sg24
I0
sbssg25
S'\xa6,NnQP\xa1\xdf\x1b\x0e\x94|\xdb\xd1\xe6\xba'
p946
ssS'_home_moza_venvs_moza_django_lib_python2_7_site-packages_django_db_models_fields_files'
p947
(dp948
g6
(dp949
g8
S'_home_moza_venvs_moza_django_lib_python2_7_site-packages_django_db_models_fields_files.html'
p950
sg10
S'/home/moza/venvs/moza_django/lib/python2.7/site-packages/django/db/models/fields/files'
p951
sg12
g13
(g14
g15
NtRp952
(dp953
g18
I1
sg19
I0
sg20
I206
sg21
I0
sg22
I0
sg23
I138
sg24
I0
sbssg25
S':??\x1b\x108\xfc2\xfd\xeb4\xd3S\n\xe1\xdc'
p954
ssS'manage'
p955
(dp956
g6
(dp957
g8
S'manage.html'
p958
sg10
g955
sg12
g13
(g14
g15
NtRp959
(dp960
g18
I1
sg19
I0
sg20
I6
sg21
I0
sg22
I0
sg23
I0
sg24
I0
sbssg25
S'R\x0c,\x80\xc42\xecu\x11\x89\xbb\xd84\xab0\xbc'
p961
ssS'_home_moza_venvs_moza_django_lib_python2_7_site-packages_django_utils_functional'
p962
(dp963
g6
(dp964
g8
S'_home_moza_venvs_moza_django_lib_python2_7_site-packages_django_utils_functional.html'
p965
sg10
S'/home/moza/venvs/moza_django/lib/python2.7/site-packages/django/utils/functional'
p966
sg12
g13
(g14
g15
NtRp967
(dp968
g18
I1
sg19
I0
sg20
I222
sg21
I0
sg22
I0
sg23
I94
sg24
I0
sbssg25
S'\xee\xf6\xdd\xfd\x8d]7Q\xf9W\x9f\x00\xe0\x03\x08L'
p969
ssS'_home_moza_venvs_moza_django_lib_python2_7_site-packages_django_core_serializers___init__'
p970
(dp971
g6
(dp972
g8
S'_home_moza_venvs_moza_django_lib_python2_7_site-packages_django_core_serializers___init__.html'
p973
sg10
S'/home/moza/venvs/moza_django/lib/python2.7/site-packages/django/core/serializers/__init__'
p974
sg12
g13
(g14
g15
NtRp975
(dp976
g18
I1
sg19
I0
sg20
I64
sg21
I0
sg22
I0
sg23
I28
sg24
I0
sbssg25
S'\xec\x88\xe1\xca9\x8e8\xaf\xa6hyQ\x15\x9d~o'
p977
ssS'_home_moza_venvs_moza_django_lib_python2_7_site-packages_django_db___init__'
p978
(dp979
g6
(dp980
g8
S'_home_moza_venvs_moza_django_lib_python2_7_site-packages_django_db___init__.html'
p981
sg10
S'/home/moza/venvs/moza_django/lib/python2.7/site-packages/django/db/__init__'
p982
sg12
g13
(g14
g15
NtRp983
(dp984
g18
I1
sg19
I0
sg20
I45
sg21
I0
sg22
I0
sg23
I20
sg24
I0
sbssg25
S'i\xc7\xf0\r\x82`5\xc2(\x8a*\x8b\xe7\xdb2x'
p985
ssS'_home_moza_venvs_moza_django_lib_python2_7_site-packages_django_templatetags___init__'
p986
(dp987
g6
(dp988
g8
S'_home_moza_venvs_moza_django_lib_python2_7_site-packages_django_templatetags___init__.html'
p989
sg10
S'/home/moza/venvs/moza_django/lib/python2.7/site-packages/django/templatetags/__init__'
p990
sg12
g13
(g14
g15
NtRp991
(dp992
g18
I1
sg19
I0
sg20
I0
sg21
I0
sg22
I0
sg23
I0
sg24
I0
sbssg25
S'\xca\xf5\x9f\x7f\x88\xdfa\x831|T\x1d\xbc}\xa5v'
p993
ssS'_home_moza_venvs_moza_django_lib_python2_7_site-packages_django_db_models_fields_proxy'
p994
(dp995
g6
(dp996
g8
S'_home_moza_venvs_moza_django_lib_python2_7_site-packages_django_db_models_fields_proxy.html'
p997
sg10
S'/home/moza/venvs/moza_django/lib/python2.7/site-packages/django/db/models/fields/proxy'
p998
sg12
g13
(g14
g15
NtRp999
(dp1000
g18
I1
sg19
I0
sg20
I6
sg21
I0
sg22
I0
sg23
I3
sg24
I0
sbssg25
S'V\x13\xa3\x82& \x8au\xa8\xde\xd3\x84\xd0B\xc1\x80'
p1001
ssS'_home_moza_venvs_moza_django_lib_python2_7_site-packages_django_contrib_sessions_backends_db'
p1002
(dp1003
g6
(dp1004
g8
S'_home_moza_venvs_moza_django_lib_python2_7_site-packages_django_contrib_sessions_backends_db.html'
p1005
sg10
S'/home/moza/venvs/moza_django/lib/python2.7/site-packages/django/contrib/sessions/backends/db'
p1006
sg12
g13
(g14
g15
NtRp1007
(dp1008
g18
I1
sg19
I0
sg20
I53
sg21
I0
sg22
I0
sg23
I38
sg24
I0
sbssg25
S"\xc6\xa2\x16T\xb8\xdf\x10\xc7\xe9p'B+\xb1\x97e"
p1009
ssS'_home_moza_venvs_moza_django_lib_python2_7_site-packages_django_core_servers_basehttp'
p1010
(dp1011
g6
(dp1012
g8
S'_home_moza_venvs_moza_django_lib_python2_7_site-packages_django_core_servers_basehttp.html'
p1013
sg10
S'/home/moza/venvs/moza_django/lib/python2.7/site-packages/django/core/servers/basehttp'
p1014
sg12
g13
(g14
g15
NtRp1015
(dp1016
g18
I1
sg19
I0
sg20
I89
sg21
I0
sg22
I0
sg23
I59
sg24
I0
sbssg25
S'\xeb\xd2X,\xd9\x941\xde7\x1e\xc6x\xbf\x11!\x1c'
p1017
ssS'_home_moza_venvs_moza_django_lib_python2_7_site-packages_django_views_decorators_cache'
p1018
(dp1019
g6
(dp1020
g8
S'_home_moza_venvs_moza_django_lib_python2_7_site-packages_django_views_decorators_cache.html'
p1021
sg10
S'/home/moza/venvs/moza_django/lib/python2.7/site-packages/django/views/decorators/cache'
p1022
sg12
g13
(g14
g15
NtRp1023
(dp1024
g18
I1
sg19
I0
sg20
I27
sg21
I0
sg22
I0
sg23
I18
sg24
I0
sbssg25
S'\x8b\x83\xe0\xbd5]\x8b\xdc\xa3\x02i\xc0\xf4\x95\xbe\xaa'
p1025
ssS'_home_moza_venvs_moza_django_lib_python2_7_site-packages_django_dispatch_dispatcher'
p1026
(dp1027
g6
(dp1028
g8
S'_home_moza_venvs_moza_django_lib_python2_7_site-packages_django_dispatch_dispatcher.html'
p1029
sg10
S'/home/moza/venvs/moza_django/lib/python2.7/site-packages/django/dispatch/dispatcher'
p1030
sg12
g13
(g14
g15
NtRp1031
(dp1032
g18
I1
sg19
I0
sg20
I122
sg21
I0
sg22
I0
sg23
I30
sg24
I0
sbssg25
S'\x14\x1f\xc8\xf8\x06\xa0\xbd!\xdc#\xee\xeb\xe3\x8f\xf8\xfc'
p1033
ssS'shoutouts_managers'
p1034
(dp1035
g6
(dp1036
g8
S'shoutouts_managers.html'
p1037
sg10
S'shoutouts/managers'
p1038
sg12
g13
(g14
g15
NtRp1039
(dp1040
g18
I1
sg19
I0
sg20
I14
sg21
I0
sg22
I0
sg23
I0
sg24
I0
sbssg25
S'\xe5y\x7f4\xe3Lx+\x07\xec\xe0\xa7\x91\xc0D\x00'
p1041
ssS'_home_moza_venvs_moza_django_lib_python2_7_site-packages_django_core_management_base'
p1042
(dp1043
g6
(dp1044
g8
S'_home_moza_venvs_moza_django_lib_python2_7_site-packages_django_core_management_base.html'
p1045
sg10
S'/home/moza/venvs/moza_django/lib/python2.7/site-packages/django/core/management/base'
p1046
sg12
g13
(g14
g15
NtRp1047
(dp1048
g18
I1
sg19
I0
sg20
I144
sg21
I0
sg22
I0
sg23
I57
sg24
I0
sbssg25
S'wc\x95\xf9\x1b2(\xbd\xc3[\x03Lj+\xfc\xa7'
p1049
ssS'shoutouts_tests___init__'
p1050
(dp1051
g6
(dp1052
g8
S'shoutouts_tests___init__.html'
p1053
sg10
S'shoutouts/tests/__init__'
p1054
sg12
g13
(g14
g15
NtRp1055
(dp1056
g18
I1
sg19
I0
sg20
I4
sg21
I0
sg22
I0
sg23
I0
sg24
I0
sbssg25
S'\xa8\xfb\x80\xee\xb2Gr@\xcakP\xd7?\x08\x0b\xcc'
p1057
ssS'_home_moza_venvs_moza_django_lib_python2_7_site-packages_django_template_loaders_cached'
p1058
(dp1059
g6
(dp1060
g8
S'_home_moza_venvs_moza_django_lib_python2_7_site-packages_django_template_loaders_cached.html'
p1061
sg10
S'/home/moza/venvs/moza_django/lib/python2.7/site-packages/django/template/loaders/cached'
p1062
sg12
g13
(g14
g15
NtRp1063
(dp1064
g18
I1
sg19
I0
sg20
I42
sg21
I0
sg22
I0
sg23
I31
sg24
I0
sbssg25
S'_\x15~\xf5X\xf1\x00\x89\xc2\xd2\xbe\xbd\x93?\xdaK'
p1065
ssS'_home_moza_venvs_moza_django_lib_python2_7_site-packages_django_db_models_loading'
p1066
(dp1067
g6
(dp1068
g8
S'_home_moza_venvs_moza_django_lib_python2_7_site-packages_django_db_models_loading.html'
p1069
sg10
S'/home/moza/venvs/moza_django/lib/python2.7/site-packages/django/db/models/loading'
p1070
sg12
g13
(g14
g15
NtRp1071
(dp1072
g18
I1
sg19
I0
sg20
I152
sg21
I0
sg22
I0
sg23
I29
sg24
I0
sbssg25
S'i\x8d\xa6\x96i9\xdbZ\x1d\xe2k?Rz\x18c'
p1073
ssS'_home_moza_venvs_moza_django_lib_python2_7_site-packages_django_forms_forms'
p1074
(dp1075
g6
(dp1076
g8
S'_home_moza_venvs_moza_django_lib_python2_7_site-packages_django_forms_forms.html'
p1077
sg10
S'/home/moza/venvs/moza_django/lib/python2.7/site-packages/django/forms/forms'
p1078
sg12
g13
(g14
g15
NtRp1079
(dp1080
g18
I1
sg19
I0
sg20
I290
sg21
I0
sg22
I0
sg23
I210
sg24
I0
sbssg25
S'\xec\x10u\x98\xc5S\xdd~C\x9c\xf5*\xeaP\xb9\xe9'
p1081
ssS'_home_moza_venvs_moza_django_lib_python2_7_site-packages_django_utils_six'
p1082
(dp1083
g6
(dp1084
g8
S'_home_moza_venvs_moza_django_lib_python2_7_site-packages_django_utils_six.html'
p1085
sg10
S'/home/moza/venvs/moza_django/lib/python2.7/site-packages/django/utils/six'
p1086
sg12
g13
(g14
g15
NtRp1087
(dp1088
g18
I1
sg19
I0
sg20
I346
sg21
I0
sg22
I0
sg23
I158
sg24
I0
sbssg25
S'5\xc4\x8e\xdel\x06\x9a\x9d\xa3\xf3\t\xc5\xda\xf0\x97\t'
p1089
ssS'_home_moza_venvs_moza_django_lib_python2_7_site-packages_django_core_cache_backends___init__'
p1090
(dp1091
g6
(dp1092
g8
S'_home_moza_venvs_moza_django_lib_python2_7_site-packages_django_core_cache_backends___init__.html'
p1093
sg10
S'/home/moza/venvs/moza_django/lib/python2.7/site-packages/django/core/cache/backends/__init__'
p1094
sg12
g13
(g14
g15
NtRp1095
(dp1096
g18
I1
sg19
I0
sg20
I0
sg21
I0
sg22
I0
sg23
I0
sg24
I0
sbssg25
S'\xca\xf5\x9f\x7f\x88\xdfa\x831|T\x1d\xbc}\xa5v'
p1097
ssS'_home_moza_venvs_moza_django_lib_python2_7_site-packages_django_utils_numberformat'
p1098
(dp1099
g6
(dp1100
g8
S'_home_moza_venvs_moza_django_lib_python2_7_site-packages_django_utils_numberformat.html'
p1101
sg10
S'/home/moza/venvs/moza_django/lib/python2.7/site-packages/django/utils/numberformat'
p1102
sg12
g13
(g14
g15
NtRp1103
(dp1104
g18
I1
sg19
I0
sg20
I31
sg21
I0
sg22
I0
sg23
I27
sg24
I0
sbssg25
S'\xac_\xe7\xd6\xec"\xf9\xd4B\x8c<\xe2\xd4\xc7[\x8c'
p1105
ssS'_home_moza_venvs_moza_django_lib_python2_7_site-packages_django_core_serializers_python'
p1106
(dp1107
g6
(dp1108
g8
S'_home_moza_venvs_moza_django_lib_python2_7_site-packages_django_core_serializers_python.html'
p1109
sg10
S'/home/moza/venvs/moza_django/lib/python2.7/site-packages/django/core/serializers/python'
p1110
sg12
g13
(g14
g15
NtRp1111
(dp1112
g18
I1
sg19
I0
sg20
I86
sg21
I0
sg22
I0
sg23
I67
sg24
I0
sbssg25
S'\xfd%{\xe2\xde--\x11H\xe0\x1d\x03C\xbe\x16\x0f'
p1113
ssS'_home_moza_venvs_moza_django_lib_python2_7_site-packages_django_contrib_sessions_exceptions'
p1114
(dp1115
g6
(dp1116
g8
S'_home_moza_venvs_moza_django_lib_python2_7_site-packages_django_contrib_sessions_exceptions.html'
p1117
sg10
S'/home/moza/venvs/moza_django/lib/python2.7/site-packages/django/contrib/sessions/exceptions'
p1118
sg12
g13
(g14
g15
NtRp1119
(dp1120
g18
I1
sg19
I0
sg20
I5
sg21
I0
sg22
I0
sg23
I0
sg24
I0
sbssg25
S'\x95\x04\x01\x10c\xc83\xdaB\xb8qa\xe6[c\xd8'
p1121
ssS'_home_moza_venvs_moza_django_lib_python2_7_site-packages_django_utils__os'
p1122
(dp1123
g6
(dp1124
g8
S'_home_moza_venvs_moza_django_lib_python2_7_site-packages_django_utils__os.html'
p1125
sg10
S'/home/moza/venvs/moza_django/lib/python2.7/site-packages/django/utils/_os'
p1126
sg12
g13
(g14
g15
NtRp1127
(dp1128
g18
I1
sg19
I0
sg20
I43
sg21
I0
sg22
I0
sg23
I21
sg24
I0
sbssg25
S'%v\x07\xaa\xae\xdaT\xf5\xd7\x83\xe0\x8f\xb0\x1f\x1d\xe4'
p1129
ssS'_home_moza_venvs_moza_django_lib_python2_7_site-packages_django_core_files_images'
p1130
(dp1131
g6
(dp1132
g8
S'_home_moza_venvs_moza_django_lib_python2_7_site-packages_django_core_files_images.html'
p1133
sg10
S'/home/moza/venvs/moza_django/lib/python2.7/site-packages/django/core/files/images'
p1134
sg12
g13
(g14
g15
NtRp1135
(dp1136
g18
I1
sg19
I0
sg20
I43
sg21
I0
sg22
I0
sg23
I34
sg24
I0
sbssg25
S'Z\xe7k\x87\x0c]\xa6@\x18@T,E\x1d\x14\x90'
p1137
ssS'_home_moza_venvs_moza_django_lib_python2_7_site-packages_django_core_serializers_pyyaml'
p1138
(dp1139
g6
(dp1140
g8
S'_home_moza_venvs_moza_django_lib_python2_7_site-packages_django_core_serializers_pyyaml.html'
p1141
sg10
S'/home/moza/venvs/moza_django/lib/python2.7/site-packages/django/core/serializers/pyyaml'
p1142
sg12
g13
(g14
g15
NtRp1143
(dp1144
g18
I1
sg19
I0
sg20
I41
sg21
I0
sg22
I0
sg23
I39
sg24
I0
sbssg25
S' V\xff\xec3\xd0\xae2P\xae\xb6s&\xb5\xc3Z'
p1145
ssS'_home_moza_venvs_moza_django_lib_python2_7_site-packages_django_utils_termcolors'
p1146
(dp1147
g6
(dp1148
g8
S'_home_moza_venvs_moza_django_lib_python2_7_site-packages_django_utils_termcolors.html'
p1149
sg10
S'/home/moza/venvs/moza_django/lib/python2.7/site-packages/django/utils/termcolors'
p1150
sg12
g13
(g14
g15
NtRp1151
(dp1152
g18
I1
sg19
I0
sg20
I57
sg21
I0
sg22
I0
sg23
I40
sg24
I0
sbssg25
S'\xd7\xa8,\x9e\xfa\xda\xaf\t8h\xcf\xbc+^\x06\xa0'
p1153
ssS'_home_moza_venvs_moza_django_lib_python2_7_site-packages_django_contrib_contenttypes_views'
p1154
(dp1155
g6
(dp1156
g8
S'_home_moza_venvs_moza_django_lib_python2_7_site-packages_django_contrib_contenttypes_views.html'
p1157
sg10
S'/home/moza/venvs/moza_django/lib/python2.7/site-packages/django/contrib/contenttypes/views'
p1158
sg12
g13
(g14
g15
NtRp1159
(dp1160
g18
I1
sg19
I0
sg20
I50
sg21
I0
sg22
I0
sg23
I43
sg24
I0
sbssg25
S'\xe4\x81W%\xa6\xc9,\xa9jV%,\xc5\x89\x0c\x17'
p1161
ssS'_home_moza_venvs_moza_django_lib_python2_7_site-packages_django_db_models_expressions'
p1162
(dp1163
g6
(dp1164
g8
S'_home_moza_venvs_moza_django_lib_python2_7_site-packages_django_db_models_expressions.html'
p1165
sg10
S'/home/moza/venvs/moza_django/lib/python2.7/site-packages/django/db/models/expressions'
p1166
sg12
g13
(g14
g15
NtRp1167
(dp1168
g18
I1
sg19
I0
sg20
I94
sg21
I0
sg22
I0
sg23
I50
sg24
I0
sbssg25
S'\x9fV-\x87T\xd5S\xe7)\xc5@\x05 \xe4\x85$'
p1169
ssS'_home_moza_venvs_moza_django_lib_python2_7_site-packages_django_test_client'
p1170
(dp1171
g6
(dp1172
g8
S'_home_moza_venvs_moza_django_lib_python2_7_site-packages_django_test_client.html'
p1173
sg10
S'/home/moza/venvs/moza_django/lib/python2.7/site-packages/django/test/client'
p1174
sg12
g13
(g14
g15
NtRp1175
(dp1176
g18
I1
sg19
I0
sg20
I301
sg21
I0
sg22
I0
sg23
I223
sg24
I0
sbssg25
S'\xa6\xb8\x8e\x0b\x0e\x13\xd8\xc0>?+\x1fIi\x9c\x9d'
p1177
ssS'_home_moza_venvs_moza_django_lib_python2_7_site-packages_django_test_utils'
p1178
(dp1179
g6
(dp1180
g8
S'_home_moza_venvs_moza_django_lib_python2_7_site-packages_django_test_utils.html'
p1181
sg10
S'/home/moza/venvs/moza_django/lib/python2.7/site-packages/django/test/utils'
p1182
sg12
g13
(g14
g15
NtRp1183
(dp1184
g18
I1
sg19
I0
sg20
I265
sg21
I0
sg22
I0
sg23
I172
sg24
I0
sbssg25
S'\xd9\xdd\xfa\x89Z^u\x13\x0b9)\xdb[\n\xa5|'
p1185
ssS'_home_moza_venvs_moza_django_lib_python2_7_site-packages_django_views_static'
p1186
(dp1187
g6
(dp1188
g8
S'_home_moza_venvs_moza_django_lib_python2_7_site-packages_django_views_static.html'
p1189
sg10
S'/home/moza/venvs/moza_django/lib/python2.7/site-packages/django/views/static'
p1190
sg12
g13
(g14
g15
NtRp1191
(dp1192
g18
I1
sg19
I0
sg20
I73
sg21
I0
sg22
I0
sg23
I57
sg24
I0
sbssg25
S'&5\x82E\x8b\xf0\xe2K\x17\xdf\x8b\x1a\xc4\xc8\xad\x83'
p1193
ssS'_home_moza_venvs_moza_django_lib_python2_7_site-packages_django_forms_models'
p1194
(dp1195
g6
(dp1196
g8
S'_home_moza_venvs_moza_django_lib_python2_7_site-packages_django_forms_models.html'
p1197
sg10
S'/home/moza/venvs/moza_django/lib/python2.7/site-packages/django/forms/models'
p1198
sg12
g13
(g14
g15
NtRp1199
(dp1200
g18
I1
sg19
I0
sg20
I654
sg21
I0
sg22
I0
sg23
I476
sg24
I0
sbssg25
S'\xe6\x8f\xa6\x93\x06\xf6\xffG=\xc9\x83\x99\xf1J}f'
p1201
ssS'_home_moza_venvs_moza_django_lib_python2_7_site-packages_django_utils_regex_helper'
p1202
(dp1203
g6
(dp1204
g8
S'_home_moza_venvs_moza_django_lib_python2_7_site-packages_django_utils_regex_helper.html'
p1205
sg10
S'/home/moza/venvs/moza_django/lib/python2.7/site-packages/django/utils/regex_helper'
p1206
sg12
g13
(g14
g15
NtRp1207
(dp1208
g18
I1
sg19
I0
sg20
I188
sg21
I0
sg22
I0
sg23
I175
sg24
I0
sbssg25
S'\xc4\x88\xec\xef\xc8$3\xf7\x95\xc4\x86\x1a?\x06\x7f7'
p1209
ssS'_home_moza_venvs_moza_django_lib_python2_7_site-packages_django_utils_timesince'
p1210
(dp1211
g6
(dp1212
g8
S'_home_moza_venvs_moza_django_lib_python2_7_site-packages_django_utils_timesince.html'
p1213
sg10
S'/home/moza/venvs/moza_django/lib/python2.7/site-packages/django/utils/timesince'
p1214
sg12
g13
(g14
g15
NtRp1215
(dp1216
g18
I1
sg19
I0
sg20
I30
sg21
I0
sg22
I0
sg23
I23
sg24
I0
sbssg25
S'\xa2]\xb6\x8b\x16\xc6\xbaB\xa7\x06\xa5\xb2\x8a,E\xdc'
p1217
ssS'shoutouts_models'
p1218
(dp1219
g6
(dp1220
g8
S'shoutouts_models.html'
p1221
sg10
S'shoutouts/models'
p1222
sg12
g13
(g14
g15
NtRp1223
(dp1224
g18
I1
sg19
I0
sg20
I41
sg21
I0
sg22
I0
sg23
I7
sg24
I0
sbssg25
S'@\xa1\x0c t\xf1W\xf3\xc2\xfc\xba\xe0\xd3\x15\xb3\xf9'
p1225
ssS'_home_moza_venvs_moza_django_lib_python2_7_site-packages_django_db_backends_util'
p1226
(dp1227
g6
(dp1228
g8
S'_home_moza_venvs_moza_django_lib_python2_7_site-packages_django_db_backends_util.html'
p1229
sg10
S'/home/moza/venvs/moza_django/lib/python2.7/site-packages/django/db/backends/util'
p1230
sg12
g13
(g14
g15
NtRp1231
(dp1232
g18
I1
sg19
I0
sg20
I110
sg21
I0
sg22
I0
sg23
I68
sg24
I0
sbssg25
S'&@\x86\xcf2\xa6\xa7\xcc\xb7Z\xcf\x05\xdc\x19[\x93'
p1233
ssS'_home_moza_venvs_moza_django_lib_python2_7_site-packages_django_contrib_staticfiles_finders'
p1234
(dp1235
g6
(dp1236
g8
S'_home_moza_venvs_moza_django_lib_python2_7_site-packages_django_contrib_staticfiles_finders.html'
p1237
sg10
S'/home/moza/venvs/moza_django/lib/python2.7/site-packages/django/contrib/staticfiles/finders'
p1238
sg12
g13
(g14
g15
NtRp1239
(dp1240
g18
I1
sg19
I0
sg20
I151
sg21
I0
sg22
I0
sg23
I113
sg24
I0
sbssg25
S':}X\xc7:&\xa9\xefJ#gA`|bE'
p1241
ssS'_home_moza_venvs_moza_django_lib_python2_7_site-packages_django_db_models_constants'
p1242
(dp1243
g6
(dp1244
g8
S'_home_moza_venvs_moza_django_lib_python2_7_site-packages_django_db_models_constants.html'
p1245
sg10
S'/home/moza/venvs/moza_django/lib/python2.7/site-packages/django/db/models/constants'
p1246
sg12
g13
(g14
g15
NtRp1247
(dp1248
g18
I1
sg19
I0
sg20
I1
sg21
I0
sg22
I0
sg23
I0
sg24
I0
sbssg25
S'K\x0f@\x85\xa8\x06~v\xd55D;1,\x0f\x95'
p1249
ssS'_home_moza_venvs_moza_django_lib_python2_7_site-packages_django_contrib_admin_templatetags___init__'
p1250
(dp1251
g6
(dp1252
g8
S'_home_moza_venvs_moza_django_lib_python2_7_site-packages_django_contrib_admin_templatetags___init__.html'
p1253
sg10
S'/home/moza/venvs/moza_django/lib/python2.7/site-packages/django/contrib/admin/templatetags/__init__'
p1254
sg12
g13
(g14
g15
NtRp1255
(dp1256
g18
I1
sg19
I0
sg20
I0
sg21
I0
sg22
I0
sg23
I0
sg24
I0
sbssg25
S'\xca\xf5\x9f\x7f\x88\xdfa\x831|T\x1d\xbc}\xa5v'
p1257
ssS'_home_moza_venvs_moza_django_lib_python2_7_site-packages_django_utils_text'
p1258
(dp1259
g6
(dp1260
g8
S'_home_moza_venvs_moza_django_lib_python2_7_site-packages_django_utils_text.html'
p1261
sg10
S'/home/moza/venvs/moza_django/lib/python2.7/site-packages/django/utils/text'
p1262
sg12
g13
(g14
g15
NtRp1263
(dp1264
g18
I1
sg19
I0
sg20
I227
sg21
I0
sg22
I0
sg23
I168
sg24
I0
sbssg25
S'Y\xf9\xda\x8e\xc7\xdeD\xe7\x12D\xe9X\xeb\xb9R\x8e'
p1265
ssS'_home_moza_venvs_moza_django_lib_python2_7_site-packages_django_db_models_signals'
p1266
(dp1267
g6
(dp1268
g8
S'_home_moza_venvs_moza_django_lib_python2_7_site-packages_django_db_models_signals.html'
p1269
sg10
S'/home/moza/venvs/moza_django/lib/python2.7/site-packages/django/db/models/signals'
p1270
sg12
g13
(g14
g15
NtRp1271
(dp1272
g18
I1
sg19
I0
sg20
I11
sg21
I0
sg22
I0
sg23
I0
sg24
I0
sbssg25
S'\x025!\xbd\xfd%\xdc\x0cD"74\xef\xfc\x9b\xa3'
p1273
ssS'_home_moza_venvs_moza_django_lib_python2_7_site-packages_django_core_cache_backends_db'
p1274
(dp1275
g6
(dp1276
g8
S'_home_moza_venvs_moza_django_lib_python2_7_site-packages_django_core_cache_backends_db.html'
p1277
sg10
S'/home/moza/venvs/moza_django/lib/python2.7/site-packages/django/core/cache/backends/db'
p1278
sg12
g13
(g14
g15
NtRp1279
(dp1280
g18
I1
sg19
I0
sg20
I136
sg21
I0
sg22
I0
sg23
I110
sg24
I0
sbssg25
S'r\x89\xb9\xd3i\x1b\xa2\xde\xf5\xf4b3v\xa6\xe6Y'
p1281
ssS'_home_moza_venvs_moza_django_lib_python2_7_site-packages_django_db_models_query_utils'
p1282
(dp1283
g6
(dp1284
g8
S'_home_moza_venvs_moza_django_lib_python2_7_site-packages_django_db_models_query_utils.html'
p1285
sg10
S'/home/moza/venvs/moza_django/lib/python2.7/site-packages/django/db/models/query_utils'
p1286
sg12
g13
(g14
g15
NtRp1287
(dp1288
g18
I1
sg19
I0
sg20
I100
sg21
I0
sg22
I0
sg23
I72
sg24
I0
sbssg25
S'\x9cs\xd5{\xf5\x9b\xb7|;\xf4\x93\xea\xe4\x850\xc9'
p1289
ssS'_home_moza_venvs_moza_django_lib_python2_7_site-packages_django_contrib_staticfiles_templatetags_staticfiles'
p1290
(dp1291
g6
(dp1292
g8
S'_home_moza_venvs_moza_django_lib_python2_7_site-packages_django_contrib_staticfiles_templatetags_staticfiles.html'
p1293
sg10
S'/home/moza/venvs/moza_django/lib/python2.7/site-packages/django/contrib/staticfiles/templatetags/staticfiles'
p1294
sg12
g13
(g14
g15
NtRp1295
(dp1296
g18
I1
sg19
I0
sg20
I12
sg21
I0
sg22
I0
sg23
I4
sg24
I0
sbssg25
S'Yr\xd1@\xa6D\xd8\xc6\x1a\xe1\x8e\x06\xe6ue|'
p1297
ssS'_home_moza_venvs_moza_django_lib_python2_7_site-packages_django_utils_version'
p1298
(dp1299
g6
(dp1300
g8
S'_home_moza_venvs_moza_django_lib_python2_7_site-packages_django_utils_version.html'
p1301
sg10
S'/home/moza/venvs/moza_django/lib/python2.7/site-packages/django/utils/version'
p1302
sg12
g13
(g14
g15
NtRp1303
(dp1304
g18
I1
sg19
I0
sg20
I29
sg21
I0
sg22
I0
sg23
I15
sg24
I0
sbssg25
S'(\xf2@\x12{\x98\xeb\xf0L\x9ct\xec\x05Ap('
p1305
ssS'_home_moza_venvs_moza_django_lib_python2_7_site-packages_django_core_files_uploadhandler'
p1306
(dp1307
g6
(dp1308
g8
S'_home_moza_venvs_moza_django_lib_python2_7_site-packages_django_core_files_uploadhandler.html'
p1309
sg10
S'/home/moza/venvs/moza_django/lib/python2.7/site-packages/django/core/files/uploadhandler'
p1310
sg12
g13
(g14
g15
NtRp1311
(dp1312
g18
I1
sg19
I0
sg20
I76
sg21
I0
sg22
I0
sg23
I40
sg24
I0
sbssg25
S'\x1ah\xd0\xcd\xde\x14b\xf9\x81H\xf6h\xc0\x8d\x94\xe3'
p1313
ssS'_home_moza_venvs_moza_django_lib_python2_7_site-packages_django_utils_itercompat'
p1314
(dp1315
g6
(dp1316
g8
S'_home_moza_venvs_moza_django_lib_python2_7_site-packages_django_utils_itercompat.html'
p1317
sg10
S'/home/moza/venvs/moza_django/lib/python2.7/site-packages/django/utils/itercompat'
p1318
sg12
g13
(g14
g15
NtRp1319
(dp1320
g18
I1
sg19
I0
sg20
I17
sg21
I0
sg22
I0
sg23
I8
sg24
I0
sbssg25
S':k\x8b\x86;\xda2T\x9d \xc2\xcdm\x8aDv'
p1321
ssS'_home_moza_venvs_moza_django_lib_python2_7_site-packages_django_core_wsgi'
p1322
(dp1323
g6
(dp1324
g8
S'_home_moza_venvs_moza_django_lib_python2_7_site-packages_django_core_wsgi.html'
p1325
sg10
S'/home/moza/venvs/moza_django/lib/python2.7/site-packages/django/core/wsgi'
p1326
sg12
g13
(g14
g15
NtRp1327
(dp1328
g18
I1
sg19
I0
sg20
I3
sg21
I0
sg22
I0
sg23
I1
sg24
I0
sbssg25
S'\x05@\x04,\x8d\xbb\xc9\x97\xb6\xcc;\x06\t\xbb\xb7\xfb'
p1329
ssS'_home_moza_venvs_moza_django_lib_python2_7_site-packages_django_db_utils'
p1330
(dp1331
g6
(dp1332
g8
S'_home_moza_venvs_moza_django_lib_python2_7_site-packages_django_db_utils.html'
p1333
sg10
S'/home/moza/venvs/moza_django/lib/python2.7/site-packages/django/db/utils'
p1334
sg12
g13
(g14
g15
NtRp1335
(dp1336
g18
I1
sg19
I0
sg20
I172
sg21
I0
sg22
I0
sg23
I57
sg24
I0
sbssg25
S'w\xee\xdc\xa7\xcf\xad\xc4\x7f6\x05b1\xe8W\xae5'
p1337
ssS'_home_moza_venvs_moza_django_lib_python2_7_site-packages_django_contrib_admin_filters'
p1338
(dp1339
g6
(dp1340
g8
S'_home_moza_venvs_moza_django_lib_python2_7_site-packages_django_contrib_admin_filters.html'
p1341
sg10
S'/home/moza/venvs/moza_django/lib/python2.7/site-packages/django/contrib/admin/filters'
p1342
sg12
g13
(g14
g15
NtRp1343
(dp1344
g18
I1
sg19
I0
sg20
I188
sg21
I0
sg22
I0
sg23
I127
sg24
I0
sbssg25
S'$\x87%5\x9d\x94~\x14\x8d\x8f\x0f+n\xc4h\xe2'
p1345
ssS'_home_moza_venvs_moza_django_lib_python2_7_site-packages_django_core_management___init__'
p1346
(dp1347
g6
(dp1348
g8
S'_home_moza_venvs_moza_django_lib_python2_7_site-packages_django_core_management___init__.html'
p1349
sg10
S'/home/moza/venvs/moza_django/lib/python2.7/site-packages/django/core/management/__init__'
p1350
sg12
g13
(g14
g15
NtRp1351
(dp1352
g18
I1
sg19
I0
sg20
I185
sg21
I0
sg22
I0
sg23
I79
sg24
I0
sbssg25
S'x\x01n\xa1*\xcf\xaf\x9a\xfb\xa3\xf0#\x9eT\xb4\xd9'
p1353
ssS'_home_moza_venvs_moza_django_lib_python2_7_site-packages_django_views___init__'
p1354
(dp1355
g6
(dp1356
g8
S'_home_moza_venvs_moza_django_lib_python2_7_site-packages_django_views___init__.html'
p1357
sg10
S'/home/moza/venvs/moza_django/lib/python2.7/site-packages/django/views/__init__'
p1358
sg12
g13
(g14
g15
NtRp1359
(dp1360
g18
I1
sg19
I0
sg20
I0
sg21
I0
sg22
I0
sg23
I0
sg24
I0
sbssg25
S'\xca\xf5\x9f\x7f\x88\xdfa\x831|T\x1d\xbc}\xa5v'
p1361
ssS'_home_moza_venvs_moza_django_lib_python2_7_site-packages_django_template_defaulttags'
p1362
(dp1363
g6
(dp1364
g8
S'_home_moza_venvs_moza_django_lib_python2_7_site-packages_django_template_defaulttags.html'
p1365
sg10
S'/home/moza/venvs/moza_django/lib/python2.7/site-packages/django/template/defaulttags'
p1366
sg12
g13
(g14
g15
NtRp1367
(dp1368
g18
I1
sg19
I0
sg20
I623
sg21
I0
sg22
I0
sg23
I500
sg24
I0
sbssg25
S'\xe0*\xad\xa3\xe5\xc7\xe1\xadP\xa1\x06@\x16\xbb.\x83'
p1369
ssS'_home_moza_venvs_moza_django_lib_python2_7_site-packages_django_contrib_admin_validation'
p1370
(dp1371
g6
(dp1372
g8
S'_home_moza_venvs_moza_django_lib_python2_7_site-packages_django_contrib_admin_validation.html'
p1373
sg10
S'/home/moza/venvs/moza_django/lib/python2.7/site-packages/django/contrib/admin/validation'
p1374
sg12
g13
(g14
g15
NtRp1375
(dp1376
g18
I1
sg19
I0
sg20
I254
sg21
I0
sg22
I0
sg23
I209
sg24
I0
sbssg25
S'\xe83\x90\x100+\x1f#\xce\xa0\xfc\xd0o\xb4\r\xa2'
p1377
ssS'_home_moza_venvs_moza_django_lib_python2_7_site-packages_django_contrib_admin_forms'
p1378
(dp1379
g6
(dp1380
g8
S'_home_moza_venvs_moza_django_lib_python2_7_site-packages_django_contrib_admin_forms.html'
p1381
sg10
S'/home/moza/venvs/moza_django/lib/python2.7/site-packages/django/contrib/admin/forms'
p1382
sg12
g13
(g14
g15
NtRp1383
(dp1384
g18
I1
sg19
I0
sg20
I20
sg21
I0
sg22
I0
sg23
I11
sg24
I0
sbssg25
S'`\xba\xc8\xf7\xde\xa2\xd6\nlf\x13  K\xed\x00'
p1385
ssS'_home_moza_venvs_moza_django_lib_python2_7_site-packages_django_utils_tzinfo'
p1386
(dp1387
g6
(dp1388
g8
S'_home_moza_venvs_moza_django_lib_python2_7_site-packages_django_utils_tzinfo.html'
p1389
sg10
S'/home/moza/venvs/moza_django/lib/python2.7/site-packages/django/utils/tzinfo'
p1390
sg12
g13
(g14
g15
NtRp1391
(dp1392
g18
I1
sg19
I0
sg20
I54
sg21
I0
sg22
I0
sg23
I35
sg24
I0
sbssg25
S'\xd7\xc3\xe6\xb8\xeaF\xf3X\xd8Y\x1a\x17\xcc\xa6\x9d\xcc'
p1393
ssS'shoutouts___init__'
p1394
(dp1395
g6
(dp1396
g8
S'shoutouts___init__.html'
p1397
sg10
S'shoutouts/__init__'
p1398
sg12
g13
(g14
g15
NtRp1399
(dp1400
g18
I1
sg19
I0
sg20
I0
sg21
I0
sg22
I0
sg23
I0
sg24
I0
sbssg25
S'\xca\xf5\x9f\x7f\x88\xdfa\x831|T\x1d\xbc}\xa5v'
p1401
ssS'_home_moza_venvs_moza_django_lib_python2_7_site-packages_django_contrib_admin_sites'
p1402
(dp1403
g6
(dp1404
g8
S'_home_moza_venvs_moza_django_lib_python2_7_site-packages_django_contrib_admin_sites.html'
p1405
sg10
S'/home/moza/venvs/moza_django/lib/python2.7/site-packages/django/contrib/admin/sites'
p1406
sg12
g13
(g14
g15
NtRp1407
(dp1408
g18
I1
sg19
I0
sg20
I204
sg21
I0
sg22
I0
sg23
I147
sg24
I0
sbssg25
S'\x8a\xaa;2Z\x88\xd6\x83\x92\x9b[W\x97G\xa0\x81'
p1409
ssS'_home_moza_venvs_moza_django_lib_python2_7_site-packages_django_forms_widgets'
p1410
(dp1411
g6
(dp1412
g8
S'_home_moza_venvs_moza_django_lib_python2_7_site-packages_django_forms_widgets.html'
p1413
sg10
S'/home/moza/venvs/moza_django/lib/python2.7/site-packages/django/forms/widgets'
p1414
sg12
g13
(g14
g15
NtRp1415
(dp1416
g18
I1
sg19
I0
sg20
I522
sg21
I0
sg22
I0
sg23
I323
sg24
I0
sbssg25
S'\xf4\xdb\xbf-Wp\x0b\xa9\xff\xc7\x12\xb3-\xe5\xe1N'
p1417
ssS'_home_moza_venvs_moza_django_lib_python2_7_site-packages_django_contrib_staticfiles_templatetags___init__'
p1418
(dp1419
g6
(dp1420
g8
S'_home_moza_venvs_moza_django_lib_python2_7_site-packages_django_contrib_staticfiles_templatetags___init__.html'
p1421
sg10
S'/home/moza/venvs/moza_django/lib/python2.7/site-packages/django/contrib/staticfiles/templatetags/__init__'
p1422
sg12
g13
(g14
g15
NtRp1423
(dp1424
g18
I1
sg19
I0
sg20
I0
sg21
I0
sg22
I0
sg23
I0
sg24
I0
sbssg25
S'\xca\xf5\x9f\x7f\x88\xdfa\x831|T\x1d\xbc}\xa5v'
p1425
ssS'_home_moza_venvs_moza_django_lib_python2_7_site-packages_django_core_management_commands_syncdb'
p1426
(dp1427
g6
(dp1428
g8
S'_home_moza_venvs_moza_django_lib_python2_7_site-packages_django_core_management_commands_syncdb.html'
p1429
sg10
S'/home/moza/venvs/moza_django/lib/python2.7/site-packages/django/core/management/commands/syncdb'
p1430
sg12
g13
(g14
g15
NtRp1431
(dp1432
g18
I1
sg19
I0
sg20
I100
sg21
I0
sg22
I0
sg23
I22
sg24
I0
sbssg25
S'\xa0\x85\xc0\xc6\x95\xf8Z\x8c\x83D\xe0n6\xb0Cx'
p1433
ssS'_home_moza_venvs_moza_django_lib_python2_7_site-packages_django_contrib_admin_util'
p1434
(dp1435
g6
(dp1436
g8
S'_home_moza_venvs_moza_django_lib_python2_7_site-packages_django_contrib_admin_util.html'
p1437
sg10
S'/home/moza/venvs/moza_django/lib/python2.7/site-packages/django/contrib/admin/util'
p1438
sg12
g13
(g14
g15
NtRp1439
(dp1440
g18
I1
sg19
I0
sg20
I284
sg21
I0
sg22
I0
sg23
I239
sg24
I0
sbssg25
S'\xe2\x1d\xd3\t\xf0\x88\xb8\xe7^\x15\x17\xd4A_U\xaa'
p1441
ssS'_home_moza_venvs_moza_django_lib_python2_7_site-packages_django_core_serializers_json'
p1442
(dp1443
g6
(dp1444
g8
S'_home_moza_venvs_moza_django_lib_python2_7_site-packages_django_core_serializers_json.html'
p1445
sg10
S'/home/moza/venvs/moza_django/lib/python2.7/site-packages/django/core/serializers/json'
p1446
sg12
g13
(g14
g15
NtRp1447
(dp1448
g18
I1
sg19
I0
sg20
I73
sg21
I0
sg22
I0
sg23
I53
sg24
I0
sbssg25
S'FK0q\xd5\x9c\xfb~\xba\xf1\xfa\x89\xe2\xabOr'
p1449
ssS'_home_moza_venvs_moza_django_lib_python2_7_site-packages_django_utils_log'
p1450
(dp1451
g6
(dp1452
g8
S'_home_moza_venvs_moza_django_lib_python2_7_site-packages_django_utils_log.html'
p1453
sg10
S'/home/moza/venvs/moza_django/lib/python2.7/site-packages/django/utils/log'
p1454
sg12
g13
(g14
g15
NtRp1455
(dp1456
g18
I1
sg19
I0
sg20
I61
sg21
I0
sg22
I0
sg23
I34
sg24
I0
sbssg25
S'Y\xb0\x80\xba\xbb\x11\x8a\xea\xe7\\\x98b\xa0\x9e;6'
p1457
ssS'_home_moza_venvs_moza_django_lib_python2_7_site-packages_django_core_management_commands_flush'
p1458
(dp1459
g6
(dp1460
g8
S'_home_moza_venvs_moza_django_lib_python2_7_site-packages_django_core_management_commands_flush.html'
p1461
sg10
S'/home/moza/venvs/moza_django/lib/python2.7/site-packages/django/core/management/commands/flush'
p1462
sg12
g13
(g14
g15
NtRp1463
(dp1464
g18
I1
sg19
I0
sg20
I51
sg21
I0
sg22
I0
sg23
I5
sg24
I0
sbssg25
S'{\t\xbf\xdc\xedCvSo!\xa9T\x0f\x8e\xd1\x8b'
p1465
ssS'_home_moza_venvs_moza_django_lib_python2_7_site-packages_django_utils_translation___init__'
p1466
(dp1467
g6
(dp1468
g8
S'_home_moza_venvs_moza_django_lib_python2_7_site-packages_django_utils_translation___init__.html'
p1469
sg10
S'/home/moza/venvs/moza_django/lib/python2.7/site-packages/django/utils/translation/__init__'
p1470
sg12
g13
(g14
g15
NtRp1471
(dp1472
g18
I1
sg19
I0
sg20
I110
sg21
I0
sg22
I0
sg23
I48
sg24
I0
sbssg25
S'\xe3\xcd6\x18\x99[O\x11\xb3S\xde\x91\xdd:\xcbx'
p1473
ssS'_home_moza_venvs_moza_django_lib_python2_7_site-packages_django_contrib_sessions___init__'
p1474
(dp1475
g6
(dp1476
g8
S'_home_moza_venvs_moza_django_lib_python2_7_site-packages_django_contrib_sessions___init__.html'
p1477
sg10
S'/home/moza/venvs/moza_django/lib/python2.7/site-packages/django/contrib/sessions/__init__'
p1478
sg12
g13
(g14
g15
NtRp1479
(dp1480
g18
I1
sg19
I0
sg20
I0
sg21
I0
sg22
I0
sg23
I0
sg24
I0
sbssg25
S'\xca\xf5\x9f\x7f\x88\xdfa\x831|T\x1d\xbc}\xa5v'
p1481
ssS'_home_moza_venvs_moza_django_lib_python2_7_site-packages_django_core_urlresolvers'
p1482
(dp1483
g6
(dp1484
g8
S'_home_moza_venvs_moza_django_lib_python2_7_site-packages_django_core_urlresolvers.html'
p1485
sg10
S'/home/moza/venvs/moza_django/lib/python2.7/site-packages/django/core/urlresolvers'
p1486
sg12
g13
(g14
g15
NtRp1487
(dp1488
g18
I1
sg19
I0
sg20
I377
sg21
I0
sg22
I0
sg23
I299
sg24
I0
sbssg25
S"&*'9($>\xae\r\x12e\xc4\x19l\xf8\t"
p1489
ssS'_home_moza_venvs_moza_django_lib_python2_7_site-packages_django_core_handlers___init__'
p1490
(dp1491
g6
(dp1492
g8
S'_home_moza_venvs_moza_django_lib_python2_7_site-packages_django_core_handlers___init__.html'
p1493
sg10
S'/home/moza/venvs/moza_django/lib/python2.7/site-packages/django/core/handlers/__init__'
p1494
sg12
g13
(g14
g15
NtRp1495
(dp1496
g18
I1
sg19
I0
sg20
I0
sg21
I0
sg22
I0
sg23
I0
sg24
I0
sbssg25
S'\xca\xf5\x9f\x7f\x88\xdfa\x831|T\x1d\xbc}\xa5v'
p1497
ssS'_home_moza_venvs_moza_django_lib_python2_7_site-packages_django_template_loader'
p1498
(dp1499
g6
(dp1500
g8
S'_home_moza_venvs_moza_django_lib_python2_7_site-packages_django_template_loader.html'
p1501
sg10
S'/home/moza/venvs/moza_django/lib/python2.7/site-packages/django/template/loader'
p1502
sg12
g13
(g14
g15
NtRp1503
(dp1504
g18
I1
sg19
I0
sg20
I97
sg21
I0
sg22
I0
sg23
I73
sg24
I0
sbssg25
S'\xbeh\x879Mt\xae\xb4\xbek0,>s\xb8%'
p1505
ssS'_home_moza_venvs_moza_django_lib_python2_7_site-packages_django_utils_tree'
p1506
(dp1507
g6
(dp1508
g8
S'_home_moza_venvs_moza_django_lib_python2_7_site-packages_django_utils_tree.html'
p1509
sg10
S'/home/moza/venvs/moza_django/lib/python2.7/site-packages/django/utils/tree'
p1510
sg12
g13
(g14
g15
NtRp1511
(dp1512
g18
I1
sg19
I0
sg20
I50
sg21
I0
sg22
I0
sg23
I19
sg24
I0
sbssg25
S'\x05}\xe6\xd2\xac\x0e\xb8\xcf\x8feM\xb9\x17\xa8\x96)'
p1513
ssS'_home_moza_venvs_moza_django_lib_python2_7_site-packages_django_template_context'
p1514
(dp1515
g6
(dp1516
g8
S'_home_moza_venvs_moza_django_lib_python2_7_site-packages_django_template_context.html'
p1517
sg10
S'/home/moza/venvs/moza_django/lib/python2.7/site-packages/django/template/context'
p1518
sg12
g13
(g14
g15
NtRp1519
(dp1520
g18
I1
sg19
I0
sg20
I104
sg21
I0
sg22
I0
sg23
I72
sg24
I0
sbssg25
S'p<;=\xee{\x17\x93\xb9\t\xb0R8r\xd2N'
p1521
ssS'_home_moza_venvs_moza_django_lib_python2_7_site-packages_django_utils_crypto'
p1522
(dp1523
g6
(dp1524
g8
S'_home_moza_venvs_moza_django_lib_python2_7_site-packages_django_utils_crypto.html'
p1525
sg10
S'/home/moza/venvs/moza_django/lib/python2.7/site-packages/django/utils/crypto'
p1526
sg12
g13
(g14
g15
NtRp1527
(dp1528
g18
I1
sg19
I0
sg20
I75
sg21
I0
sg22
I0
sg23
I21
sg24
I0
sbssg25
S'\xb2\x14.\xb3\xecP\xe4\xfc?\x80#\xba\xfa\xf0&1'
p1529
ssS'moza_django_settings___init__'
p1530
(dp1531
g6
(dp1532
g8
S'moza_django_settings___init__.html'
p1533
sg10
S'moza_django/settings/__init__'
p1534
sg12
g13
(g14
g15
NtRp1535
(dp1536
g18
I1
sg19
I0
sg20
I1
sg21
I0
sg22
I0
sg23
I0
sg24
I0
sbssg25
S'\xe7\xb5\xb8S\xa56]-i6T_9\xf3l\xe8'
p1537
ssS'_home_moza_venvs_moza_django_lib_python2_7_site-packages_django_template_loader_tags'
p1538
(dp1539
g6
(dp1540
g8
S'_home_moza_venvs_moza_django_lib_python2_7_site-packages_django_template_loader_tags.html'
p1541
sg10
S'/home/moza/venvs/moza_django/lib/python2.7/site-packages/django/template/loader_tags'
p1542
sg12
g13
(g14
g15
NtRp1543
(dp1544
g18
I1
sg19
I0
sg20
I177
sg21
I0
sg22
I0
sg23
I138
sg24
I0
sbssg25
S'\x1a\x10\xde\xe8\xcdbf\\u\xd0R\xb4\xc0\x82\x0b3'
p1545
ssS'_home_moza_venvs_moza_django_lib_python2_7_site-packages_django_utils_datastructures'
p1546
(dp1547
g6
(dp1548
g8
S'_home_moza_venvs_moza_django_lib_python2_7_site-packages_django_utils_datastructures.html'
p1549
sg10
S'/home/moza/venvs/moza_django/lib/python2.7/site-packages/django/utils/datastructures'
p1550
sg12
g13
(g14
g15
NtRp1551
(dp1552
g18
I1
sg19
I0
sg20
I307
sg21
I0
sg22
I0
sg23
I165
sg24
I0
sbssg25
S'}\xdd\x87\xba\xee[\x0b\x14\x1f/&+3#\x84\x12'
p1553
ssS'_home_moza_venvs_moza_django_lib_python2_7_site-packages_django_template_smartif'
p1554
(dp1555
g6
(dp1556
g8
S'_home_moza_venvs_moza_django_lib_python2_7_site-packages_django_template_smartif.html'
p1557
sg10
S'/home/moza/venvs/moza_django/lib/python2.7/site-packages/django/template/smartif'
p1558
sg12
g13
(g14
g15
NtRp1559
(dp1560
g18
I1
sg19
I0
sg20
I104
sg21
I0
sg22
I0
sg23
I61
sg24
I0
sbssg25
S'\xff7VbS!ky \xa4\x05_\x8c\xef\xf6\x9a'
p1561
ssS'_home_moza_venvs_moza_django_lib_python2_7_site-packages_django_test_runner'
p1562
(dp1563
g6
(dp1564
g8
S'_home_moza_venvs_moza_django_lib_python2_7_site-packages_django_test_runner.html'
p1565
sg10
S'/home/moza/venvs/moza_django/lib/python2.7/site-packages/django/test/runner'
p1566
sg12
g13
(g14
g15
NtRp1567
(dp1568
g18
I1
sg19
I0
sg20
I150
sg21
I0
sg22
I0
sg23
I19
sg24
I0
sbssg25
S'5\xba@V\xa2\xe5\xa5\xb3^\xed\xeeY\xd4\xb0j\xbc'
p1569
ssS'_home_moza_venvs_moza_django_lib_python2_7_site-packages_django_utils_module_loading'
p1570
(dp1571
g6
(dp1572
g8
S'_home_moza_venvs_moza_django_lib_python2_7_site-packages_django_utils_module_loading.html'
p1573
sg10
S'/home/moza/venvs/moza_django/lib/python2.7/site-packages/django/utils/module_loading'
p1574
sg12
g13
(g14
g15
NtRp1575
(dp1576
g18
I1
sg19
I0
sg20
I66
sg21
I0
sg22
I0
sg23
I51
sg24
I0
sbssg25
S'Uc|\x91\x12\xe4\xdf\x17\xad\xc5\x9b\x86N2\x82\x9a'
p1577
ssS'_home_moza_venvs_moza_django_lib_python2_7_site-packages_django_utils_safestring'
p1578
(dp1579
g6
(dp1580
g8
S'_home_moza_venvs_moza_django_lib_python2_7_site-packages_django_utils_safestring.html'
p1581
sg10
S'/home/moza/venvs/moza_django/lib/python2.7/site-packages/django/utils/safestring'
p1582
sg12
g13
(g14
g15
NtRp1583
(dp1584
g18
I1
sg19
I0
sg20
I62
sg21
I0
sg22
I0
sg23
I33
sg24
I0
sbssg25
S'w\xa7\xda2E\x9fd\xc3\xf8L\xd0Ev\r\xf7M'
p1585
ssS'_home_moza_venvs_moza_django_lib_python2_7_site-packages_django_middleware___init__'
p1586
(dp1587
g6
(dp1588
g8
S'_home_moza_venvs_moza_django_lib_python2_7_site-packages_django_middleware___init__.html'
p1589
sg10
S'/home/moza/venvs/moza_django/lib/python2.7/site-packages/django/middleware/__init__'
p1590
sg12
g13
(g14
g15
NtRp1591
(dp1592
g18
I1
sg19
I0
sg20
I0
sg21
I0
sg22
I0
sg23
I0
sg24
I0
sbssg25
S'\xca\xf5\x9f\x7f\x88\xdfa\x831|T\x1d\xbc}\xa5v'
p1593
ssS'_home_moza_venvs_moza_django_lib_python2_7_site-packages_django_utils_dateparse'
p1594
(dp1595
g6
(dp1596
g8
S'_home_moza_venvs_moza_django_lib_python2_7_site-packages_django_utils_dateparse.html'
p1597
sg10
S'/home/moza/venvs/moza_django/lib/python2.7/site-packages/django/utils/dateparse'
p1598
sg12
g13
(g14
g15
NtRp1599
(dp1600
g18
I1
sg19
I0
sg20
I38
sg21
I0
sg22
I0
sg23
I16
sg24
I0
sbssg25
S'\xc0\x05\xc08\x9c\x17\xc7*\xbeJ\xff\x9b.\xfeS\xe3'
p1601
ssS'_home_moza_venvs_moza_django_lib_python2_7_site-packages_django_templatetags_static'
p1602
(dp1603
g6
(dp1604
g8
S'_home_moza_venvs_moza_django_lib_python2_7_site-packages_django_templatetags_static.html'
p1605
sg10
S'/home/moza/venvs/moza_django/lib/python2.7/site-packages/django/templatetags/static'
p1606
sg12
g13
(g14
g15
NtRp1607
(dp1608
g18
I1
sg19
I0
sg20
I68
sg21
I0
sg22
I0
sg23
I47
sg24
I0
sbssg25
S'\xe5\xc73\x11\xc5\xe3\x90A/1\xc5\x86O/\x8e7'
p1609
ssS'_home_moza_venvs_moza_django_lib_python2_7_site-packages_django_contrib_staticfiles_handlers'
p1610
(dp1611
g6
(dp1612
g8
S'_home_moza_venvs_moza_django_lib_python2_7_site-packages_django_contrib_staticfiles_handlers.html'
p1613
sg10
S'/home/moza/venvs/moza_django/lib/python2.7/site-packages/django/contrib/staticfiles/handlers'
p1614
sg12
g13
(g14
g15
NtRp1615
(dp1616
g18
I1
sg19
I0
sg20
I41
sg21
I0
sg22
I0
sg23
I25
sg24
I0
sbssg25
S'e9\xd8\x8d\x91\xb3\x18\xb2\rj\xbd\xfe\x85\xcb*\x80'
p1617
ssS'_home_moza_venvs_moza_django_lib_python2_7_site-packages_django_template_base'
p1618
(dp1619
g6
(dp1620
g8
S'_home_moza_venvs_moza_django_lib_python2_7_site-packages_django_template_base.html'
p1621
sg10
S'/home/moza/venvs/moza_django/lib/python2.7/site-packages/django/template/base'
p1622
sg12
g13
(g14
g15
NtRp1623
(dp1624
g18
I1
sg19
I0
sg20
I787
sg21
I0
sg22
I0
sg23
I569
sg24
I0
sbssg25
S'*\n\xd3\x1ar\xe9q\xb4\x94z&$\xa33b\xce'
p1625
ssS'shoutouts_tests_test_managers'
p1626
(dp1627
g6
(dp1628
g8
S'shoutouts_tests_test_managers.html'
p1629
sg10
S'shoutouts/tests/test_managers'
p1630
sg12
g13
(g14
g15
NtRp1631
(dp1632
g18
I1
sg19
I0
sg20
I16
sg21
I0
sg22
I0
sg23
I0
sg24
I0
sbssg25
S'VD+\x1bm\xc6\x80\x86L\xf8DD\x9b\xd1\xc2\x15'
p1633
ssS'_home_moza_venvs_moza_django_lib_python2_7_site-packages_django_core_management_commands___init__'
p1634
(dp1635
g6
(dp1636
g8
S'_home_moza_venvs_moza_django_lib_python2_7_site-packages_django_core_management_commands___init__.html'
p1637
sg10
S'/home/moza/venvs/moza_django/lib/python2.7/site-packages/django/core/management/commands/__init__'
p1638
sg12
g13
(g14
g15
NtRp1639
(dp1640
g18
I1
sg19
I0
sg20
I0
sg21
I0
sg22
I0
sg23
I0
sg24
I0
sbssg25
S'\xca\xf5\x9f\x7f\x88\xdfa\x831|T\x1d\xbc}\xa5v'
p1641
ssS'_home_moza_venvs_moza_django_lib_python2_7_site-packages_django_contrib_staticfiles_management___init__'
p1642
(dp1643
g6
(dp1644
g8
S'_home_moza_venvs_moza_django_lib_python2_7_site-packages_django_contrib_staticfiles_management___init__.html'
p1645
sg10
S'/home/moza/venvs/moza_django/lib/python2.7/site-packages/django/contrib/staticfiles/management/__init__'
p1646
sg12
g13
(g14
g15
NtRp1647
(dp1648
g18
I1
sg19
I0
sg20
I0
sg21
I0
sg22
I0
sg23
I0
sg24
I0
sbssg25
S'\xca\xf5\x9f\x7f\x88\xdfa\x831|T\x1d\xbc}\xa5v'
p1649
ssS'_home_moza_venvs_moza_django_lib_python2_7_site-packages_django_test_signals'
p1650
(dp1651
g6
(dp1652
g8
S'_home_moza_venvs_moza_django_lib_python2_7_site-packages_django_test_signals.html'
p1653
sg10
S'/home/moza/venvs/moza_django/lib/python2.7/site-packages/django/test/signals'
p1654
sg12
g13
(g14
g15
NtRp1655
(dp1656
g18
I1
sg19
I0
sg20
I50
sg21
I0
sg22
I0
sg23
I35
sg24
I0
sbssg25
S'ge\x9f\x82 \xec\x0c\x05\x1b\x13\x1ah\x1fYor'
p1657
ssS'_home_moza_venvs_moza_django_lib_python2_7_site-packages_django_contrib_messages_constants'
p1658
(dp1659
g6
(dp1660
g8
S'_home_moza_venvs_moza_django_lib_python2_7_site-packages_django_contrib_messages_constants.html'
p1661
sg10
S'/home/moza/venvs/moza_django/lib/python2.7/site-packages/django/contrib/messages/constants'
p1662
sg12
g13
(g14
g15
NtRp1663
(dp1664
g18
I1
sg19
I0
sg20
I6
sg21
I0
sg22
I0
sg23
I0
sg24
I0
sbssg25
S'\x99u\x1fZpQ\xa3b\x8f# l\x06w\xe1\xdb'
p1665
ssS'_home_moza_venvs_moza_django_lib_python2_7_site-packages_django_core_exceptions'
p1666
(dp1667
g6
(dp1668
g8
S'_home_moza_venvs_moza_django_lib_python2_7_site-packages_django_core_exceptions.html'
p1669
sg10
S'/home/moza/venvs/moza_django/lib/python2.7/site-packages/django/core/exceptions'
p1670
sg12
g13
(g14
g15
NtRp1671
(dp1672
g18
I1
sg19
I0
sg20
I76
sg21
I0
sg22
I0
sg23
I40
sg24
I0
sbssg25
S"(}/8r'\xc6\x101\xa5\xe5\xbeS\xe3Q\x8f"
p1673
ssS'_home_moza_venvs_moza_django_lib_python2_7_site-packages_django_db_models___init__'
p1674
(dp1675
g6
(dp1676
g8
S'_home_moza_venvs_moza_django_lib_python2_7_site-packages_django_db_models___init__.html'
p1677
sg10
S'/home/moza/venvs/moza_django/lib/python2.7/site-packages/django/db/models/__init__'
p1678
sg12
g13
(g14
g15
NtRp1679
(dp1680
g18
I1
sg19
I0
sg20
I20
sg21
I0
sg22
I0
sg23
I5
sg24
I0
sbssg25
S'$\x11\xda\x17=\xa2D\xbd\xbe2M{\xcd\xcb\xe9\xe7'
p1681
ssS'_home_moza_venvs_moza_django_lib_python2_7_site-packages_django_db_backends_sqlite3___init__'
p1682
(dp1683
g6
(dp1684
g8
S'_home_moza_venvs_moza_django_lib_python2_7_site-packages_django_db_backends_sqlite3___init__.html'
p1685
sg10
S'/home/moza/venvs/moza_django/lib/python2.7/site-packages/django/db/backends/sqlite3/__init__'
p1686
sg12
g13
(g14
g15
NtRp1687
(dp1688
g18
I1
sg19
I0
sg20
I0
sg21
I0
sg22
I0
sg23
I0
sg24
I0
sbssg25
S'\xca\xf5\x9f\x7f\x88\xdfa\x831|T\x1d\xbc}\xa5v'
p1689
ssS'_home_moza_venvs_moza_django_lib_python2_7_site-packages_django_template_response'
p1690
(dp1691
g6
(dp1692
g8
S'_home_moza_venvs_moza_django_lib_python2_7_site-packages_django_template_response.html'
p1693
sg10
S'/home/moza/venvs/moza_django/lib/python2.7/site-packages/django/template/response'
p1694
sg12
g13
(g14
g15
NtRp1695
(dp1696
g18
I1
sg19
I0
sg20
I72
sg21
I0
sg22
I0
sg23
I50
sg24
I0
sbssg25
S'Y\xbe2#\xdcg\x1e\xa2\xda\x84\xe1\xbf\x15\x9f\xaf\x05'
p1697
ssS'_home_moza_venvs_moza_django_lib_python2_7_site-packages_django_core_serializers_base'
p1698
(dp1699
g6
(dp1700
g8
S'_home_moza_venvs_moza_django_lib_python2_7_site-packages_django_core_serializers_base.html'
p1701
sg10
S'/home/moza/venvs/moza_django/lib/python2.7/site-packages/django/core/serializers/base'
p1702
sg12
g13
(g14
g15
NtRp1703
(dp1704
g18
I1
sg19
I0
sg20
I76
sg21
I0
sg22
I0
sg23
I49
sg24
I0
sbssg25
S'\x84CF\xb2\xa8\x0et\x81]\x8c+\x81* X\x08'
p1705
ssS'_home_moza_venvs_moza_django_lib_python2_7_site-packages_django_db_models_sql_datastructures'
p1706
(dp1707
g6
(dp1708
g8
S'_home_moza_venvs_moza_django_lib_python2_7_site-packages_django_db_models_sql_datastructures.html'
p1709
sg10
S'/home/moza/venvs/moza_django/lib/python2.7/site-packages/django/db/models/sql/datastructures'
p1710
sg12
g13
(g14
g15
NtRp1711
(dp1712
g18
I1
sg19
I0
sg20
I34
sg21
I0
sg22
I0
sg23
I18
sg24
I0
sbssg25
S'\xa4\xc3\xb0~\n\x90 \x96\x85sR\x14r\xa8\xff\x81'
p1713
ssS'_home_moza_venvs_moza_django_lib_python2_7_site-packages_django_contrib_admin_templatetags_admin_static'
p1714
(dp1715
g6
(dp1716
g8
S'_home_moza_venvs_moza_django_lib_python2_7_site-packages_django_contrib_admin_templatetags_admin_static.html'
p1717
sg10
S'/home/moza/venvs/moza_django/lib/python2.7/site-packages/django/contrib/admin/templatetags/admin_static'
p1718
sg12
g13
(g14
g15
NtRp1719
(dp1720
g18
I1
sg19
I0
sg20
I7
sg21
I0
sg22
I0
sg23
I1
sg24
I0
sbssg25
S'B\xb8!Q\xd1\xca\x98=!\xaf\xceL\x82\xcb\xa2\x01'
p1721
ssS'_home_moza_venvs_moza_django_lib_python2_7_site-packages_django_core_management_commands_loaddata'
p1722
(dp1723
g6
(dp1724
g8
S'_home_moza_venvs_moza_django_lib_python2_7_site-packages_django_core_management_commands_loaddata.html'
p1725
sg10
S'/home/moza/venvs/moza_django/lib/python2.7/site-packages/django/core/management/commands/loaddata'
p1726
sg12
g13
(g14
g15
NtRp1727
(dp1728
g18
I1
sg19
I0
sg20
I166
sg21
I0
sg22
I0
sg23
I68
sg24
I0
sbssg25
S'\xa5\x99P\xe0\xe8Ya\xc3Ip5\x97\xe4\x83\xdcN'
p1729
ssS'_home_moza_venvs_moza_django_lib_python2_7_site-packages_django_conf_global_settings'
p1730
(dp1731
g6
(dp1732
g8
S'_home_moza_venvs_moza_django_lib_python2_7_site-packages_django_conf_global_settings.html'
p1733
sg10
S'/home/moza/venvs/moza_django/lib/python2.7/site-packages/django/conf/global_settings'
p1734
sg12
g13
(g14
g15
NtRp1735
(dp1736
g18
I1
sg19
I0
sg20
I121
sg21
I0
sg22
I0
sg23
I0
sg24
I0
sbssg25
S'Z`\xf5\xd2\x12\xe3\x85\xfe}k\x01\x90x\x1bm\xfe'
p1737
ssS'_home_moza_venvs_moza_django_lib_python2_7_site-packages_django_contrib_sessions_backends___init__'
p1738
(dp1739
g6
(dp1740
g8
S'_home_moza_venvs_moza_django_lib_python2_7_site-packages_django_contrib_sessions_backends___init__.html'
p1741
sg10
S'/home/moza/venvs/moza_django/lib/python2.7/site-packages/django/contrib/sessions/backends/__init__'
p1742
sg12
g13
(g14
g15
NtRp1743
(dp1744
g18
I1
sg19
I0
sg20
I0
sg21
I0
sg22
I0
sg23
I0
sg24
I0
sbssg25
S'\xca\xf5\x9f\x7f\x88\xdfa\x831|T\x1d\xbc}\xa5v'
p1745
ssS'_home_moza_venvs_moza_django_lib_python2_7_site-packages_django_conf_locale___init__'
p1746
(dp1747
g6
(dp1748
g8
S'_home_moza_venvs_moza_django_lib_python2_7_site-packages_django_conf_locale___init__.html'
p1749
sg10
S'/home/moza/venvs/moza_django/lib/python2.7/site-packages/django/conf/locale/__init__'
p1750
sg12
g13
(g14
g15
NtRp1751
(dp1752
g18
I1
sg19
I0
sg20
I2
sg21
I0
sg22
I0
sg23
I0
sg24
I0
sbssg25
S"\xf9\xdf\t\x9c(6\xfa\xbd'\xc9\xff\xe42\x9b\x84]"
p1753
ssS'_home_moza_venvs_moza_django_lib_python2_7_site-packages_django_db_models_options'
p1754
(dp1755
g6
(dp1756
g8
S'_home_moza_venvs_moza_django_lib_python2_7_site-packages_django_db_models_options.html'
p1757
sg10
S'/home/moza/venvs/moza_django/lib/python2.7/site-packages/django/db/models/options'
p1758
sg12
g13
(g14
g15
NtRp1759
(dp1760
g18
I1
sg19
I0
sg20
I348
sg21
I0
sg22
I0
sg23
I95
sg24
I0
sbssg25
S'\xea-\xe0\x87J\xd5\x7f\xc5\xd8*8\xc6\xa8>\xaa8'
p1761
ssS'_home_moza_venvs_moza_django_lib_python2_7_site-packages_django_utils_unittest___init__'
p1762
(dp1763
g6
(dp1764
g8
S'_home_moza_venvs_moza_django_lib_python2_7_site-packages_django_utils_unittest___init__.html'
p1765
sg10
S'/home/moza/venvs/moza_django/lib/python2.7/site-packages/django/utils/unittest/__init__'
p1766
sg12
g13
(g14
g15
NtRp1767
(dp1768
g18
I1
sg19
I0
sg20
I23
sg21
I0
sg22
I0
sg23
I17
sg24
I0
sbssg25
S'\xa8N\x8f\x06\xf1O\x1f\x89\xbe\x96\x13\xdd\xdf;\x89s'
p1769
ssS'_home_moza_venvs_moza_django_lib_python2_7_site-packages_django_middleware_cache'
p1770
(dp1771
g6
(dp1772
g8
S'_home_moza_venvs_moza_django_lib_python2_7_site-packages_django_middleware_cache.html'
p1773
sg10
S'/home/moza/venvs/moza_django/lib/python2.7/site-packages/django/middleware/cache'
p1774
sg12
g13
(g14
g15
NtRp1775
(dp1776
g18
I1
sg19
I0
sg20
I96
sg21
I0
sg22
I0
sg23
I82
sg24
I0
sbssg25
S'\xd4T\x08\xc9\x9d-\x995\x90\x9cXmH\xb6\xdai'
p1777
ssS'_home_moza_venvs_moza_django_lib_python2_7_site-packages_django_contrib_auth___init__'
p1778
(dp1779
g6
(dp1780
g8
S'_home_moza_venvs_moza_django_lib_python2_7_site-packages_django_contrib_auth___init__.html'
p1781
sg10
S'/home/moza/venvs/moza_django/lib/python2.7/site-packages/django/contrib/auth/__init__'
p1782
sg12
g13
(g14
g15
NtRp1783
(dp1784
g18
I1
sg19
I0
sg20
I86
sg21
I0
sg22
I0
sg23
I61
sg24
I0
sbssg25
S'9\xe3\xdf\x1bO\x9d\xb7\xb0W\xeb\xdb"A\xb6\x972'
p1785
ssS'_home_moza_venvs_moza_django_lib_python2_7_site-packages_django_contrib_messages___init__'
p1786
(dp1787
g6
(dp1788
g8
S'_home_moza_venvs_moza_django_lib_python2_7_site-packages_django_contrib_messages___init__.html'
p1789
sg10
S'/home/moza/venvs/moza_django/lib/python2.7/site-packages/django/contrib/messages/__init__'
p1790
sg12
g13
(g14
g15
NtRp1791
(dp1792
g18
I1
sg19
I0
sg20
I3
sg21
I0
sg22
I0
sg23
I0
sg24
I0
sbssg25
S"\xf4\x03\xf0-\x85\x9aN\xb8x'\xb8C\xe6\xcc\xc7M"
p1793
ssS'_home_moza_venvs_moza_django_lib_python2_7_site-packages_django___init__'
p1794
(dp1795
g6
(dp1796
g8
S'_home_moza_venvs_moza_django_lib_python2_7_site-packages_django___init__.html'
p1797
sg10
S'/home/moza/venvs/moza_django/lib/python2.7/site-packages/django/__init__'
p1798
sg12
g13
(g14
g15
NtRp1799
(dp1800
g18
I1
sg19
I0
sg20
I4
sg21
I0
sg22
I0
sg23
I0
sg24
I0
sbssg25
S'4\xccN\x98\x9e\xfdc\x1e\xf9\xd6\xc6\xb6\xfb\x19Q\xbf'
p1801
ssS'_home_moza_venvs_moza_django_lib_python2_7_site-packages_django_db_models_sql_constants'
p1802
(dp1803
g6
(dp1804
g8
S'_home_moza_venvs_moza_django_lib_python2_7_site-packages_django_db_models_sql_constants.html'
p1805
sg10
S'/home/moza/venvs/moza_django/lib/python2.7/site-packages/django/db/models/sql/constants'
p1806
sg12
g13
(g14
g15
NtRp1807
(dp1808
g18
I1
sg19
I0
sg20
I10
sg21
I0
sg22
I0
sg23
I0
sg24
I0
sbssg25
S'\xb5DP\xdaM\xcf\x15R\x18\xe5~"\xea\xbc\xf2\xb2'
p1809
ssS'_home_moza_venvs_moza_django_lib_python2_7_site-packages_django_core_files_temp'
p1810
(dp1811
g6
(dp1812
g8
S'_home_moza_venvs_moza_django_lib_python2_7_site-packages_django_core_files_temp.html'
p1813
sg10
S'/home/moza/venvs/moza_django/lib/python2.7/site-packages/django/core/files/temp'
p1814
sg12
g13
(g14
g15
NtRp1815
(dp1816
g18
I1
sg19
I0
sg20
I30
sg21
I0
sg22
I0
sg23
I23
sg24
I0
sbssg25
S'\xacs\xd0D\xffdr\x02\xfc}\x11\xc6\xb0s\xc7\xd8'
p1817
ssS'shoutouts_tests_test_views'
p1818
(dp1819
g6
(dp1820
g8
S'shoutouts_tests_test_views.html'
p1821
sg10
S'shoutouts/tests/test_views'
p1822
sg12
g13
(g14
g15
NtRp1823
(dp1824
g18
I1
sg19
I0
sg20
I0
sg21
I0
sg22
I0
sg23
I0
sg24
I0
sbssg25
S'\xca\xf5\x9f\x7f\x88\xdfa\x831|T\x1d\xbc}\xa5v'
p1825
ssS'_home_moza_venvs_moza_django_lib_python2_7_site-packages_django_template_defaultfilters'
p1826
(dp1827
g6
(dp1828
g8
S'_home_moza_venvs_moza_django_lib_python2_7_site-packages_django_template_defaultfilters.html'
p1829
sg10
S'/home/moza/venvs/moza_django/lib/python2.7/site-packages/django/template/defaultfilters'
p1830
sg12
g13
(g14
g15
NtRp1831
(dp1832
g18
I1
sg19
I0
sg20
I454
sg21
I0
sg22
I0
sg23
I324
sg24
I0
sbssg25
S'\xd0&\x04\xbf{\x92\x84\xb7\x84)\xd37a\xca\xd6\xf2'
p1833
ssS'_home_moza_venvs_moza_django_lib_python2_7_site-packages_django_conf___init__'
p1834
(dp1835
g6
(dp1836
g8
S'_home_moza_venvs_moza_django_lib_python2_7_site-packages_django_conf___init__.html'
p1837
sg10
S'/home/moza/venvs/moza_django/lib/python2.7/site-packages/django/conf/__init__'
p1838
sg12
g13
(g14
g15
NtRp1839
(dp1840
g18
I1
sg19
I0
sg20
I101
sg21
I0
sg22
I0
sg23
I32
sg24
I0
sbssg25
S"UhU\x132\xcc\xb9f\xba'\x99\xbc=;\xb2\x96"
p1841
ssS'_home_moza_venvs_moza_django_lib_python2_7_site-packages_django_core_files___init__'
p1842
(dp1843
g6
(dp1844
g8
S'_home_moza_venvs_moza_django_lib_python2_7_site-packages_django_core_files___init__.html'
p1845
sg10
S'/home/moza/venvs/moza_django/lib/python2.7/site-packages/django/core/files/__init__'
p1846
sg12
g13
(g14
g15
NtRp1847
(dp1848
g18
I1
sg19
I0
sg20
I1
sg21
I0
sg22
I0
sg23
I0
sg24
I0
sbssg25
S'\x93\xf8\xbd[\xbcl\x80\x88}\xdb\xd6\xec\xb5{\x15\xb3'
p1849
ssS'_home_moza_venvs_moza_django_lib_python2_7_site-packages_django_utils_dates'
p1850
(dp1851
g6
(dp1852
g8
S'_home_moza_venvs_moza_django_lib_python2_7_site-packages_django_utils_dates.html'
p1853
sg10
S'/home/moza/venvs/moza_django/lib/python2.7/site-packages/django/utils/dates'
p1854
sg12
g13
(g14
g15
NtRp1855
(dp1856
g18
I1
sg19
I0
sg20
I9
sg21
I0
sg22
I0
sg23
I0
sg24
I0
sbssg25
S'\xaa\xd0\xb6\xf0{\x0b\xfe\xc2\xe5J\xa1\xe1"\xf7\xc28'
p1857
ssS'moza_django___init__'
p1858
(dp1859
g6
(dp1860
g8
S'moza_django___init__.html'
p1861
sg10
S'moza_django/__init__'
p1862
sg12
g13
(g14
g15
NtRp1863
(dp1864
g18
I1
sg19
I0
sg20
I0
sg21
I0
sg22
I0
sg23
I0
sg24
I0
sbssg25
S'\xca\xf5\x9f\x7f\x88\xdfa\x831|T\x1d\xbc}\xa5v'
p1865
ssS'_home_moza_venvs_moza_django_lib_python2_7_site-packages_django_utils_html'
p1866
(dp1867
g6
(dp1868
g8
S'_home_moza_venvs_moza_django_lib_python2_7_site-packages_django_utils_html.html'
p1869
sg10
S'/home/moza/venvs/moza_django/lib/python2.7/site-packages/django/utils/html'
p1870
sg12
g13
(g14
g15
NtRp1871
(dp1872
g18
I1
sg19
I0
sg20
I185
sg21
I0
sg22
I0
sg23
I130
sg24
I0
sbssg25
S'O9{\x0f~\xd1\x12\\\xf6WW\xf1.\xff\x81\xdc'
p1873
ssS'_home_moza_venvs_moza_django_lib_python2_7_site-packages_django_test___init__'
p1874
(dp1875
g6
(dp1876
g8
S'_home_moza_venvs_moza_django_lib_python2_7_site-packages_django_test___init__.html'
p1877
sg10
S'/home/moza/venvs/moza_django/lib/python2.7/site-packages/django/test/__init__'
p1878
sg12
g13
(g14
g15
NtRp1879
(dp1880
g18
I1
sg19
I0
sg20
I3
sg21
I0
sg22
I0
sg23
I0
sg24
I0
sbssg25
S'"\x05`\xc0z\xbe\xc3\xcc%\x11z\x17\x1a\x15\x89\xef'
p1881
ssS'_home_moza_venvs_moza_django_lib_python2_7_site-packages_django_utils_decorators'
p1882
(dp1883
g6
(dp1884
g8
S'_home_moza_venvs_moza_django_lib_python2_7_site-packages_django_utils_decorators.html'
p1885
sg10
S'/home/moza/venvs/moza_django/lib/python2.7/site-packages/django/utils/decorators'
p1886
sg12
g13
(g14
g15
NtRp1887
(dp1888
g18
I1
sg19
I0
sg20
I62
sg21
I0
sg22
I0
sg23
I34
sg24
I0
sbssg25
S'\x1cy\x99(0\xdb\xec\x97\xe5 \xeb\xf7\xa0\xd0\x94\xfb'
p1889
ssS'_home_moza_venvs_moza_django_lib_python2_7_site-packages_django_core_handlers_base'
p1890
(dp1891
g6
(dp1892
g8
S'_home_moza_venvs_moza_django_lib_python2_7_site-packages_django_core_handlers_base.html'
p1893
sg10
S'/home/moza/venvs/moza_django/lib/python2.7/site-packages/django/core/handlers/base'
p1894
sg12
g13
(g14
g15
NtRp1895
(dp1896
g18
I1
sg19
I0
sg20
I159
sg21
I0
sg22
I0
sg23
I133
sg24
I0
sbssg25
S'P\xb4\xbb\x98\xb4Hp\xa3\xfc\xc7\xa0\xd726\xdd\xe5'
p1897
ssS'_home_moza_venvs_moza_django_lib_python2_7_site-packages_django_http___init__'
p1898
(dp1899
g6
(dp1900
g8
S'_home_moza_venvs_moza_django_lib_python2_7_site-packages_django_http___init__.html'
p1901
sg10
S'/home/moza/venvs/moza_django/lib/python2.7/site-packages/django/http/__init__'
p1902
sg12
g13
(g14
g15
NtRp1903
(dp1904
g18
I1
sg19
I0
sg20
I4
sg21
I0
sg22
I0
sg23
I0
sg24
I0
sbssg25
S'\xbc\xce\xb4\x0c\xc4\xeaf\xc2\xff[\x82\x08~49\xd8'
p1905
ssS'_home_moza_venvs_moza_django_lib_python2_7_site-packages_django_contrib_auth_signals'
p1906
(dp1907
g6
(dp1908
g8
S'_home_moza_venvs_moza_django_lib_python2_7_site-packages_django_contrib_auth_signals.html'
p1909
sg10
S'/home/moza/venvs/moza_django/lib/python2.7/site-packages/django/contrib/auth/signals'
p1910
sg12
g13
(g14
g15
NtRp1911
(dp1912
g18
I1
sg19
I0
sg20
I4
sg21
I0
sg22
I0
sg23
I0
sg24
I0
sbssg25
S'\x89\x9c\xaa;\xc3\xa0\x92\xe0\x14HX\x86\x17\\\xf6z'
p1913
ssS'_home_moza_venvs_moza_django_lib_python2_7_site-packages_django_db_transaction'
p1914
(dp1915
g6
(dp1916
g8
S'_home_moza_venvs_moza_django_lib_python2_7_site-packages_django_db_transaction.html'
p1917
sg10
S'/home/moza/venvs/moza_django/lib/python2.7/site-packages/django/db/transaction'
p1918
sg12
g13
(g14
g15
NtRp1919
(dp1920
g18
I1
sg19
I0
sg20
I206
sg21
I0
sg22
I0
sg23
I115
sg24
I0
sbssg25
S'\xf3\xa9G\xbf\xd2\xf7\x1e\x8a\xf6m\xbd\xec\xb5V\xd8,'
p1921
ssS'_home_moza_venvs_moza_django_lib_python2_7_site-packages_django_db_backends_sqlite3_client'
p1922
(dp1923
g6
(dp1924
g8
S'_home_moza_venvs_moza_django_lib_python2_7_site-packages_django_db_backends_sqlite3_client.html'
p1925
sg10
S'/home/moza/venvs/moza_django/lib/python2.7/site-packages/django/db/backends/sqlite3/client'
p1926
sg12
g13
(g14
g15
NtRp1927
(dp1928
g18
I1
sg19
I0
sg20
I10
sg21
I0
sg22
I0
sg23
I4
sg24
I0
sbssg25
S'\xecNW\x0c\xbeK#\xf0U\xd9l\xa9e\x8f\xb5\xff'
p1929
ssS'_home_moza_venvs_moza_django_lib_python2_7_site-packages_django_utils_encoding'
p1930
(dp1931
g6
(dp1932
g8
S'_home_moza_venvs_moza_django_lib_python2_7_site-packages_django_utils_encoding.html'
p1933
sg10
S'/home/moza/venvs/moza_django/lib/python2.7/site-packages/django/utils/encoding'
p1934
sg12
g13
(g14
g15
NtRp1935
(dp1936
g18
I1
sg19
I0
sg20
I108
sg21
I0
sg22
I0
sg23
I43
sg24
I0
sbssg25
S'9\xda\xa9\xeeM\xa5\xcd\xd5\xceLZK.B\xc0&'
p1937
sssS'version'
p1938
S'3.7.1'
p1939
sS'settings'
p1940
S'\x98\xa8x\xfe"r\xb5K\x98\xb1N\\\x99\x9e\xf3\xe5'
p1941
sS'format'
p1942
I1
s.